ARM GAS  C:\Users\PERNIL~1\AppData\Local\Temp\ccCrzhTs.s 			page 1


   1              		.cpu cortex-m0
   2              		.fpu softvfp
   3              		.eabi_attribute 20, 1
   4              		.eabi_attribute 21, 1
   5              		.eabi_attribute 23, 3
   6              		.eabi_attribute 24, 1
   7              		.eabi_attribute 25, 1
   8              		.eabi_attribute 26, 1
   9              		.eabi_attribute 30, 1
  10              		.eabi_attribute 34, 0
  11              		.eabi_attribute 18, 4
  12              		.code	16
  13              		.file	"I2Cslave.c"
  14              		.text
  15              	.Ltext0:
  16              		.cfi_sections	.debug_frame
  17              		.section	.text.initReceiveData,"ax",%progbits
  18              		.align	2
  19              		.global	initReceiveData
  20              		.code	16
  21              		.thumb_func
  22              		.type	initReceiveData, %function
  23              	initReceiveData:
  24              	.LFB34:
  25              		.file 1 ".\\I2Cslave.c"
   1:.\I2Cslave.c  **** #include "I2Cslave.h"
   2:.\I2Cslave.c  **** #include "Project.h"
   3:.\I2Cslave.c  **** 
   4:.\I2Cslave.c  **** 
   5:.\I2Cslave.c  ****     
   6:.\I2Cslave.c  **** void initReceiveData()
   7:.\I2Cslave.c  **** {
  26              		.loc 1 7 0
  27              		.cfi_startproc
  28 0000 08B5     		push	{r3, lr}
  29              		.cfi_def_cfa_offset 8
  30              		.cfi_offset 3, -8
  31              		.cfi_offset 14, -4
   8:.\I2Cslave.c  ****     //Set slave write buffer
   9:.\I2Cslave.c  ****     I2C_1_I2CSlaveInitWriteBuf(wrbuf,maxSize);
  32              		.loc 1 9 0
  33 0002 0248     		ldr	r0, .L2
  34 0004 0421     		mov	r1, #4
  35 0006 FFF7FEFF 		bl	I2C_1_I2CSlaveInitWriteBuf
  36              	.LVL0:
  10:.\I2Cslave.c  **** }
  37              		.loc 1 10 0
  38              		@ sp needed
  39 000a 08BD     		pop	{r3, pc}
  40              	.L3:
  41              		.align	2
  42              	.L2:
  43 000c 00000000 		.word	wrbuf
  44              		.cfi_endproc
  45              	.LFE34:
  46              		.size	initReceiveData, .-initReceiveData
  47              		.section	.text.receiveData,"ax",%progbits
ARM GAS  C:\Users\PERNIL~1\AppData\Local\Temp\ccCrzhTs.s 			page 2


  48              		.align	2
  49              		.global	receiveData
  50              		.code	16
  51              		.thumb_func
  52              		.type	receiveData, %function
  53              	receiveData:
  54              	.LFB35:
  11:.\I2Cslave.c  **** 
  12:.\I2Cslave.c  **** void receiveData(uint8* userarray)
  13:.\I2Cslave.c  **** { 
  55              		.loc 1 13 0
  56              		.cfi_startproc
  57              	.LVL1:
  58 0000 10B5     		push	{r4, lr}
  59              		.cfi_def_cfa_offset 8
  60              		.cfi_offset 4, -8
  61              		.cfi_offset 14, -4
  62 0002 041C     		mov	r4, r0
  14:.\I2Cslave.c  ****     if (I2C_1_I2CSlaveStatus() == I2C_1_I2C_SSTAT_WR_CMPLT)
  63              		.loc 1 14 0
  64 0004 FFF7FEFF 		bl	I2C_1_I2CSlaveStatus
  65              	.LVL2:
  66 0008 1028     		cmp	r0, #16
  67 000a 0DD1     		bne	.L5
  68              	.LBB2:
  15:.\I2Cslave.c  ****     {
  16:.\I2Cslave.c  ****         int i; 
  17:.\I2Cslave.c  ****         int  bytecnt=I2C_1_I2CSlaveGetWriteBufSize();
  69              		.loc 1 17 0
  70 000c FFF7FEFF 		bl	I2C_1_I2CSlaveGetWriteBufSize
  71              	.LVL3:
  18:.\I2Cslave.c  ****         for(i = 0; i<bytecnt; i++)
  72              		.loc 1 18 0
  73 0010 0023     		mov	r3, #0
  74 0012 03E0     		b	.L6
  75              	.LVL4:
  76              	.L7:
  19:.\I2Cslave.c  ****         {
  20:.\I2Cslave.c  ****             //Saves data from the I2C slave buffer into the userarray
  21:.\I2Cslave.c  ****             userarray[i] = (int)wrbuf[i];
  77              		.loc 1 21 0 discriminator 3
  78 0014 064A     		ldr	r2, .L8
  79 0016 D25C     		ldrb	r2, [r2, r3]
  80 0018 E254     		strb	r2, [r4, r3]
  18:.\I2Cslave.c  ****         for(i = 0; i<bytecnt; i++)
  81              		.loc 1 18 0 discriminator 3
  82 001a 0133     		add	r3, r3, #1
  83              	.LVL5:
  84              	.L6:
  18:.\I2Cslave.c  ****         for(i = 0; i<bytecnt; i++)
  85              		.loc 1 18 0 is_stmt 0 discriminator 1
  86 001c 8342     		cmp	r3, r0
  87 001e F9DB     		blt	.L7
  22:.\I2Cslave.c  ****         }
  23:.\I2Cslave.c  ****         
  24:.\I2Cslave.c  ****         I2C_1_I2CSlaveClearReadBuf();
  88              		.loc 1 24 0 is_stmt 1
ARM GAS  C:\Users\PERNIL~1\AppData\Local\Temp\ccCrzhTs.s 			page 3


  89 0020 FFF7FEFF 		bl	I2C_1_I2CSlaveClearReadBuf
  90              	.LVL6:
  25:.\I2Cslave.c  ****         I2C_1_I2CSlaveClearWriteBuf();
  91              		.loc 1 25 0
  92 0024 FFF7FEFF 		bl	I2C_1_I2CSlaveClearWriteBuf
  93              	.LVL7:
  94              	.L5:
  95              	.LBE2:
  26:.\I2Cslave.c  ****     }
  27:.\I2Cslave.c  ****     I2C_1_I2CSlaveClearReadStatus();
  96              		.loc 1 27 0
  97 0028 FFF7FEFF 		bl	I2C_1_I2CSlaveClearReadStatus
  98              	.LVL8:
  28:.\I2Cslave.c  **** }
  99              		.loc 1 28 0
 100              		@ sp needed
 101              	.LVL9:
 102 002c 10BD     		pop	{r4, pc}
 103              	.L9:
 104 002e C046     		.align	2
 105              	.L8:
 106 0030 00000000 		.word	wrbuf
 107              		.cfi_endproc
 108              	.LFE35:
 109              		.size	receiveData, .-receiveData
 110              		.comm	wrbuf,4,4
 111              		.text
 112              	.Letext0:
 113              		.file 2 "Generated_Source\\PSoC4/cytypes.h"
 114              		.file 3 "Generated_Source\\PSoC4/I2C_1_I2C.h"
 115              		.file 4 ".\\I2Cslave.h"