ARM GAS  C:\Users\PERNIL~1\AppData\Local\Temp\ccqDjgpn.s 			page 1


   1              		.cpu cortex-m0
   2              		.fpu softvfp
   3              		.eabi_attribute 20, 1
   4              		.eabi_attribute 21, 1
   5              		.eabi_attribute 23, 3
   6              		.eabi_attribute 24, 1
   7              		.eabi_attribute 25, 1
   8              		.eabi_attribute 26, 1
   9              		.eabi_attribute 30, 1
  10              		.eabi_attribute 34, 0
  11              		.eabi_attribute 18, 4
  12              		.code	16
  13              		.file	"PWM_venstre.c"
  14              		.text
  15              	.Ltext0:
  16              		.cfi_sections	.debug_frame
  17              		.section	.text.PWM_venstre_Enable,"ax",%progbits
  18              		.align	2
  19              		.global	PWM_venstre_Enable
  20              		.code	16
  21              		.thumb_func
  22              		.type	PWM_venstre_Enable, %function
  23              	PWM_venstre_Enable:
  24              	.LFB2:
  25              		.file 1 ".\\Generated_Source\\PSoC4\\PWM_venstre.c"
   1:.\Generated_Source\PSoC4/PWM_venstre.c **** /*******************************************************************************
   2:.\Generated_Source\PSoC4/PWM_venstre.c **** * File Name: PWM_venstre.c
   3:.\Generated_Source\PSoC4/PWM_venstre.c **** * Version 3.30
   4:.\Generated_Source\PSoC4/PWM_venstre.c **** *
   5:.\Generated_Source\PSoC4/PWM_venstre.c **** * Description:
   6:.\Generated_Source\PSoC4/PWM_venstre.c **** *  The PWM User Module consist of an 8 or 16-bit counter with two 8 or 16-bit
   7:.\Generated_Source\PSoC4/PWM_venstre.c **** *  comparitors. Each instance of this user module is capable of generating
   8:.\Generated_Source\PSoC4/PWM_venstre.c **** *  two PWM outputs with the same period. The pulse width is selectable between
   9:.\Generated_Source\PSoC4/PWM_venstre.c **** *  1 and 255/65535. The period is selectable between 2 and 255/65536 clocks.
  10:.\Generated_Source\PSoC4/PWM_venstre.c **** *  The compare value output may be configured to be active when the present
  11:.\Generated_Source\PSoC4/PWM_venstre.c **** *  counter is less than or less than/equal to the compare value.
  12:.\Generated_Source\PSoC4/PWM_venstre.c **** *  A terminal count output is also provided. It generates a pulse one clock
  13:.\Generated_Source\PSoC4/PWM_venstre.c **** *  width wide when the counter is equal to zero.
  14:.\Generated_Source\PSoC4/PWM_venstre.c **** *
  15:.\Generated_Source\PSoC4/PWM_venstre.c **** * Note:
  16:.\Generated_Source\PSoC4/PWM_venstre.c **** *
  17:.\Generated_Source\PSoC4/PWM_venstre.c **** *******************************************************************************
  18:.\Generated_Source\PSoC4/PWM_venstre.c **** * Copyright 2008-2014, Cypress Semiconductor Corporation.  All rights reserved.
  19:.\Generated_Source\PSoC4/PWM_venstre.c **** * You may use this file only in accordance with the license, terms, conditions,
  20:.\Generated_Source\PSoC4/PWM_venstre.c **** * disclaimers, and limitations in the end user license agreement accompanying
  21:.\Generated_Source\PSoC4/PWM_venstre.c **** * the software package with which this file was provided.
  22:.\Generated_Source\PSoC4/PWM_venstre.c **** ********************************************************************************/
  23:.\Generated_Source\PSoC4/PWM_venstre.c **** 
  24:.\Generated_Source\PSoC4/PWM_venstre.c **** #include "PWM_venstre.h"
  25:.\Generated_Source\PSoC4/PWM_venstre.c **** 
  26:.\Generated_Source\PSoC4/PWM_venstre.c **** /* Error message for removed <resource> through optimization */
  27:.\Generated_Source\PSoC4/PWM_venstre.c **** #ifdef PWM_venstre_PWMUDB_genblk1_ctrlreg__REMOVED
  28:.\Generated_Source\PSoC4/PWM_venstre.c ****     #error PWM_v3_30 detected with a constant 0 for the enable or \
  29:.\Generated_Source\PSoC4/PWM_venstre.c ****          constant 1 for reset. This will prevent the component from operating.
  30:.\Generated_Source\PSoC4/PWM_venstre.c **** #endif /* PWM_venstre_PWMUDB_genblk1_ctrlreg__REMOVED */
  31:.\Generated_Source\PSoC4/PWM_venstre.c **** 
  32:.\Generated_Source\PSoC4/PWM_venstre.c **** uint8 PWM_venstre_initVar = 0u;
ARM GAS  C:\Users\PERNIL~1\AppData\Local\Temp\ccqDjgpn.s 			page 2


  33:.\Generated_Source\PSoC4/PWM_venstre.c **** 
  34:.\Generated_Source\PSoC4/PWM_venstre.c **** 
  35:.\Generated_Source\PSoC4/PWM_venstre.c **** /*******************************************************************************
  36:.\Generated_Source\PSoC4/PWM_venstre.c **** * Function Name: PWM_venstre_Start
  37:.\Generated_Source\PSoC4/PWM_venstre.c **** ********************************************************************************
  38:.\Generated_Source\PSoC4/PWM_venstre.c **** *
  39:.\Generated_Source\PSoC4/PWM_venstre.c **** * Summary:
  40:.\Generated_Source\PSoC4/PWM_venstre.c **** *  The start function initializes the pwm with the default values, the
  41:.\Generated_Source\PSoC4/PWM_venstre.c **** *  enables the counter to begin counting.  It does not enable interrupts,
  42:.\Generated_Source\PSoC4/PWM_venstre.c **** *  the EnableInt command should be called if interrupt generation is required.
  43:.\Generated_Source\PSoC4/PWM_venstre.c **** *
  44:.\Generated_Source\PSoC4/PWM_venstre.c **** * Parameters:
  45:.\Generated_Source\PSoC4/PWM_venstre.c **** *  None
  46:.\Generated_Source\PSoC4/PWM_venstre.c **** *
  47:.\Generated_Source\PSoC4/PWM_venstre.c **** * Return:
  48:.\Generated_Source\PSoC4/PWM_venstre.c **** *  None
  49:.\Generated_Source\PSoC4/PWM_venstre.c **** *
  50:.\Generated_Source\PSoC4/PWM_venstre.c **** * Global variables:
  51:.\Generated_Source\PSoC4/PWM_venstre.c **** *  PWM_venstre_initVar: Is modified when this function is called for the
  52:.\Generated_Source\PSoC4/PWM_venstre.c **** *   first time. Is used to ensure that initialization happens only once.
  53:.\Generated_Source\PSoC4/PWM_venstre.c **** *
  54:.\Generated_Source\PSoC4/PWM_venstre.c **** *******************************************************************************/
  55:.\Generated_Source\PSoC4/PWM_venstre.c **** void PWM_venstre_Start(void) 
  56:.\Generated_Source\PSoC4/PWM_venstre.c **** {
  57:.\Generated_Source\PSoC4/PWM_venstre.c ****     /* If not Initialized then initialize all required hardware and software */
  58:.\Generated_Source\PSoC4/PWM_venstre.c ****     if(PWM_venstre_initVar == 0u)
  59:.\Generated_Source\PSoC4/PWM_venstre.c ****     {
  60:.\Generated_Source\PSoC4/PWM_venstre.c ****         PWM_venstre_Init();
  61:.\Generated_Source\PSoC4/PWM_venstre.c ****         PWM_venstre_initVar = 1u;
  62:.\Generated_Source\PSoC4/PWM_venstre.c ****     }
  63:.\Generated_Source\PSoC4/PWM_venstre.c ****     PWM_venstre_Enable();
  64:.\Generated_Source\PSoC4/PWM_venstre.c **** 
  65:.\Generated_Source\PSoC4/PWM_venstre.c **** }
  66:.\Generated_Source\PSoC4/PWM_venstre.c **** 
  67:.\Generated_Source\PSoC4/PWM_venstre.c **** 
  68:.\Generated_Source\PSoC4/PWM_venstre.c **** /*******************************************************************************
  69:.\Generated_Source\PSoC4/PWM_venstre.c **** * Function Name: PWM_venstre_Init
  70:.\Generated_Source\PSoC4/PWM_venstre.c **** ********************************************************************************
  71:.\Generated_Source\PSoC4/PWM_venstre.c **** *
  72:.\Generated_Source\PSoC4/PWM_venstre.c **** * Summary:
  73:.\Generated_Source\PSoC4/PWM_venstre.c **** *  Initialize component's parameters to the parameters set by user in the
  74:.\Generated_Source\PSoC4/PWM_venstre.c **** *  customizer of the component placed onto schematic. Usually called in
  75:.\Generated_Source\PSoC4/PWM_venstre.c **** *  PWM_venstre_Start().
  76:.\Generated_Source\PSoC4/PWM_venstre.c **** *
  77:.\Generated_Source\PSoC4/PWM_venstre.c **** * Parameters:
  78:.\Generated_Source\PSoC4/PWM_venstre.c **** *  None
  79:.\Generated_Source\PSoC4/PWM_venstre.c **** *
  80:.\Generated_Source\PSoC4/PWM_venstre.c **** * Return:
  81:.\Generated_Source\PSoC4/PWM_venstre.c **** *  None
  82:.\Generated_Source\PSoC4/PWM_venstre.c **** *
  83:.\Generated_Source\PSoC4/PWM_venstre.c **** *******************************************************************************/
  84:.\Generated_Source\PSoC4/PWM_venstre.c **** void PWM_venstre_Init(void) 
  85:.\Generated_Source\PSoC4/PWM_venstre.c **** {
  86:.\Generated_Source\PSoC4/PWM_venstre.c ****     #if (PWM_venstre_UsingFixedFunction || PWM_venstre_UseControl)
  87:.\Generated_Source\PSoC4/PWM_venstre.c ****         uint8 ctrl;
  88:.\Generated_Source\PSoC4/PWM_venstre.c ****     #endif /* (PWM_venstre_UsingFixedFunction || PWM_venstre_UseControl) */
  89:.\Generated_Source\PSoC4/PWM_venstre.c **** 
ARM GAS  C:\Users\PERNIL~1\AppData\Local\Temp\ccqDjgpn.s 			page 3


  90:.\Generated_Source\PSoC4/PWM_venstre.c ****     #if(!PWM_venstre_UsingFixedFunction)
  91:.\Generated_Source\PSoC4/PWM_venstre.c ****         #if(PWM_venstre_UseStatus)
  92:.\Generated_Source\PSoC4/PWM_venstre.c ****             /* Interrupt State Backup for Critical Region*/
  93:.\Generated_Source\PSoC4/PWM_venstre.c ****             uint8 PWM_venstre_interruptState;
  94:.\Generated_Source\PSoC4/PWM_venstre.c ****         #endif /* (PWM_venstre_UseStatus) */
  95:.\Generated_Source\PSoC4/PWM_venstre.c ****     #endif /* (!PWM_venstre_UsingFixedFunction) */
  96:.\Generated_Source\PSoC4/PWM_venstre.c **** 
  97:.\Generated_Source\PSoC4/PWM_venstre.c ****     #if (PWM_venstre_UsingFixedFunction)
  98:.\Generated_Source\PSoC4/PWM_venstre.c ****         /* You are allowed to write the compare value (FF only) */
  99:.\Generated_Source\PSoC4/PWM_venstre.c ****         PWM_venstre_CONTROL |= PWM_venstre_CFG0_MODE;
 100:.\Generated_Source\PSoC4/PWM_venstre.c ****         #if (PWM_venstre_DeadBand2_4)
 101:.\Generated_Source\PSoC4/PWM_venstre.c ****             PWM_venstre_CONTROL |= PWM_venstre_CFG0_DB;
 102:.\Generated_Source\PSoC4/PWM_venstre.c ****         #endif /* (PWM_venstre_DeadBand2_4) */
 103:.\Generated_Source\PSoC4/PWM_venstre.c **** 
 104:.\Generated_Source\PSoC4/PWM_venstre.c ****         ctrl = PWM_venstre_CONTROL3 & ((uint8 )(~PWM_venstre_CTRL_CMPMODE1_MASK));
 105:.\Generated_Source\PSoC4/PWM_venstre.c ****         PWM_venstre_CONTROL3 = ctrl | PWM_venstre_DEFAULT_COMPARE1_MODE;
 106:.\Generated_Source\PSoC4/PWM_venstre.c **** 
 107:.\Generated_Source\PSoC4/PWM_venstre.c ****          /* Clear and Set SYNCTC and SYNCCMP bits of RT1 register */
 108:.\Generated_Source\PSoC4/PWM_venstre.c ****         PWM_venstre_RT1 &= ((uint8)(~PWM_venstre_RT1_MASK));
 109:.\Generated_Source\PSoC4/PWM_venstre.c ****         PWM_venstre_RT1 |= PWM_venstre_SYNC;
 110:.\Generated_Source\PSoC4/PWM_venstre.c **** 
 111:.\Generated_Source\PSoC4/PWM_venstre.c ****         /*Enable DSI Sync all all inputs of the PWM*/
 112:.\Generated_Source\PSoC4/PWM_venstre.c ****         PWM_venstre_RT1 &= ((uint8)(~PWM_venstre_SYNCDSI_MASK));
 113:.\Generated_Source\PSoC4/PWM_venstre.c ****         PWM_venstre_RT1 |= PWM_venstre_SYNCDSI_EN;
 114:.\Generated_Source\PSoC4/PWM_venstre.c **** 
 115:.\Generated_Source\PSoC4/PWM_venstre.c ****     #elif (PWM_venstre_UseControl)
 116:.\Generated_Source\PSoC4/PWM_venstre.c ****         /* Set the default compare mode defined in the parameter */
 117:.\Generated_Source\PSoC4/PWM_venstre.c ****         ctrl = PWM_venstre_CONTROL & ((uint8)(~PWM_venstre_CTRL_CMPMODE2_MASK)) &
 118:.\Generated_Source\PSoC4/PWM_venstre.c ****                 ((uint8)(~PWM_venstre_CTRL_CMPMODE1_MASK));
 119:.\Generated_Source\PSoC4/PWM_venstre.c ****         PWM_venstre_CONTROL = ctrl | PWM_venstre_DEFAULT_COMPARE2_MODE |
 120:.\Generated_Source\PSoC4/PWM_venstre.c ****                                    PWM_venstre_DEFAULT_COMPARE1_MODE;
 121:.\Generated_Source\PSoC4/PWM_venstre.c ****     #endif /* (PWM_venstre_UsingFixedFunction) */
 122:.\Generated_Source\PSoC4/PWM_venstre.c **** 
 123:.\Generated_Source\PSoC4/PWM_venstre.c ****     #if (!PWM_venstre_UsingFixedFunction)
 124:.\Generated_Source\PSoC4/PWM_venstre.c ****         #if (PWM_venstre_Resolution == 8)
 125:.\Generated_Source\PSoC4/PWM_venstre.c ****             /* Set FIFO 0 to 1 byte register for period*/
 126:.\Generated_Source\PSoC4/PWM_venstre.c ****             PWM_venstre_AUX_CONTROLDP0 |= (PWM_venstre_AUX_CTRL_FIFO0_CLR);
 127:.\Generated_Source\PSoC4/PWM_venstre.c ****         #else /* (PWM_venstre_Resolution == 16)*/
 128:.\Generated_Source\PSoC4/PWM_venstre.c ****             /* Set FIFO 0 to 1 byte register for period */
 129:.\Generated_Source\PSoC4/PWM_venstre.c ****             PWM_venstre_AUX_CONTROLDP0 |= (PWM_venstre_AUX_CTRL_FIFO0_CLR);
 130:.\Generated_Source\PSoC4/PWM_venstre.c ****             PWM_venstre_AUX_CONTROLDP1 |= (PWM_venstre_AUX_CTRL_FIFO0_CLR);
 131:.\Generated_Source\PSoC4/PWM_venstre.c ****         #endif /* (PWM_venstre_Resolution == 8) */
 132:.\Generated_Source\PSoC4/PWM_venstre.c **** 
 133:.\Generated_Source\PSoC4/PWM_venstre.c ****         PWM_venstre_WriteCounter(PWM_venstre_INIT_PERIOD_VALUE);
 134:.\Generated_Source\PSoC4/PWM_venstre.c ****     #endif /* (!PWM_venstre_UsingFixedFunction) */
 135:.\Generated_Source\PSoC4/PWM_venstre.c **** 
 136:.\Generated_Source\PSoC4/PWM_venstre.c ****     PWM_venstre_WritePeriod(PWM_venstre_INIT_PERIOD_VALUE);
 137:.\Generated_Source\PSoC4/PWM_venstre.c **** 
 138:.\Generated_Source\PSoC4/PWM_venstre.c ****         #if (PWM_venstre_UseOneCompareMode)
 139:.\Generated_Source\PSoC4/PWM_venstre.c ****             PWM_venstre_WriteCompare(PWM_venstre_INIT_COMPARE_VALUE1);
 140:.\Generated_Source\PSoC4/PWM_venstre.c ****         #else
 141:.\Generated_Source\PSoC4/PWM_venstre.c ****             PWM_venstre_WriteCompare1(PWM_venstre_INIT_COMPARE_VALUE1);
 142:.\Generated_Source\PSoC4/PWM_venstre.c ****             PWM_venstre_WriteCompare2(PWM_venstre_INIT_COMPARE_VALUE2);
 143:.\Generated_Source\PSoC4/PWM_venstre.c ****         #endif /* (PWM_venstre_UseOneCompareMode) */
 144:.\Generated_Source\PSoC4/PWM_venstre.c **** 
 145:.\Generated_Source\PSoC4/PWM_venstre.c ****         #if (PWM_venstre_KillModeMinTime)
 146:.\Generated_Source\PSoC4/PWM_venstre.c ****             PWM_venstre_WriteKillTime(PWM_venstre_MinimumKillTime);
ARM GAS  C:\Users\PERNIL~1\AppData\Local\Temp\ccqDjgpn.s 			page 4


 147:.\Generated_Source\PSoC4/PWM_venstre.c ****         #endif /* (PWM_venstre_KillModeMinTime) */
 148:.\Generated_Source\PSoC4/PWM_venstre.c **** 
 149:.\Generated_Source\PSoC4/PWM_venstre.c ****         #if (PWM_venstre_DeadBandUsed)
 150:.\Generated_Source\PSoC4/PWM_venstre.c ****             PWM_venstre_WriteDeadTime(PWM_venstre_INIT_DEAD_TIME);
 151:.\Generated_Source\PSoC4/PWM_venstre.c ****         #endif /* (PWM_venstre_DeadBandUsed) */
 152:.\Generated_Source\PSoC4/PWM_venstre.c **** 
 153:.\Generated_Source\PSoC4/PWM_venstre.c ****     #if (PWM_venstre_UseStatus || PWM_venstre_UsingFixedFunction)
 154:.\Generated_Source\PSoC4/PWM_venstre.c ****         PWM_venstre_SetInterruptMode(PWM_venstre_INIT_INTERRUPTS_MODE);
 155:.\Generated_Source\PSoC4/PWM_venstre.c ****     #endif /* (PWM_venstre_UseStatus || PWM_venstre_UsingFixedFunction) */
 156:.\Generated_Source\PSoC4/PWM_venstre.c **** 
 157:.\Generated_Source\PSoC4/PWM_venstre.c ****     #if (PWM_venstre_UsingFixedFunction)
 158:.\Generated_Source\PSoC4/PWM_venstre.c ****         /* Globally Enable the Fixed Function Block chosen */
 159:.\Generated_Source\PSoC4/PWM_venstre.c ****         PWM_venstre_GLOBAL_ENABLE |= PWM_venstre_BLOCK_EN_MASK;
 160:.\Generated_Source\PSoC4/PWM_venstre.c ****         /* Set the Interrupt source to come from the status register */
 161:.\Generated_Source\PSoC4/PWM_venstre.c ****         PWM_venstre_CONTROL2 |= PWM_venstre_CTRL2_IRQ_SEL;
 162:.\Generated_Source\PSoC4/PWM_venstre.c ****     #else
 163:.\Generated_Source\PSoC4/PWM_venstre.c ****         #if(PWM_venstre_UseStatus)
 164:.\Generated_Source\PSoC4/PWM_venstre.c **** 
 165:.\Generated_Source\PSoC4/PWM_venstre.c ****             /* CyEnterCriticalRegion and CyExitCriticalRegion are used to mark following region cri
 166:.\Generated_Source\PSoC4/PWM_venstre.c ****             /* Enter Critical Region*/
 167:.\Generated_Source\PSoC4/PWM_venstre.c ****             PWM_venstre_interruptState = CyEnterCriticalSection();
 168:.\Generated_Source\PSoC4/PWM_venstre.c ****             /* Use the interrupt output of the status register for IRQ output */
 169:.\Generated_Source\PSoC4/PWM_venstre.c ****             PWM_venstre_STATUS_AUX_CTRL |= PWM_venstre_STATUS_ACTL_INT_EN_MASK;
 170:.\Generated_Source\PSoC4/PWM_venstre.c **** 
 171:.\Generated_Source\PSoC4/PWM_venstre.c ****              /* Exit Critical Region*/
 172:.\Generated_Source\PSoC4/PWM_venstre.c ****             CyExitCriticalSection(PWM_venstre_interruptState);
 173:.\Generated_Source\PSoC4/PWM_venstre.c **** 
 174:.\Generated_Source\PSoC4/PWM_venstre.c ****             /* Clear the FIFO to enable the PWM_venstre_STATUS_FIFOFULL
 175:.\Generated_Source\PSoC4/PWM_venstre.c ****                    bit to be set on FIFO full. */
 176:.\Generated_Source\PSoC4/PWM_venstre.c ****             PWM_venstre_ClearFIFO();
 177:.\Generated_Source\PSoC4/PWM_venstre.c ****         #endif /* (PWM_venstre_UseStatus) */
 178:.\Generated_Source\PSoC4/PWM_venstre.c ****     #endif /* (PWM_venstre_UsingFixedFunction) */
 179:.\Generated_Source\PSoC4/PWM_venstre.c **** }
 180:.\Generated_Source\PSoC4/PWM_venstre.c **** 
 181:.\Generated_Source\PSoC4/PWM_venstre.c **** 
 182:.\Generated_Source\PSoC4/PWM_venstre.c **** /*******************************************************************************
 183:.\Generated_Source\PSoC4/PWM_venstre.c **** * Function Name: PWM_venstre_Enable
 184:.\Generated_Source\PSoC4/PWM_venstre.c **** ********************************************************************************
 185:.\Generated_Source\PSoC4/PWM_venstre.c **** *
 186:.\Generated_Source\PSoC4/PWM_venstre.c **** * Summary:
 187:.\Generated_Source\PSoC4/PWM_venstre.c **** *  Enables the PWM block operation
 188:.\Generated_Source\PSoC4/PWM_venstre.c **** *
 189:.\Generated_Source\PSoC4/PWM_venstre.c **** * Parameters:
 190:.\Generated_Source\PSoC4/PWM_venstre.c **** *  None
 191:.\Generated_Source\PSoC4/PWM_venstre.c **** *
 192:.\Generated_Source\PSoC4/PWM_venstre.c **** * Return:
 193:.\Generated_Source\PSoC4/PWM_venstre.c **** *  None
 194:.\Generated_Source\PSoC4/PWM_venstre.c **** *
 195:.\Generated_Source\PSoC4/PWM_venstre.c **** * Side Effects:
 196:.\Generated_Source\PSoC4/PWM_venstre.c **** *  This works only if software enable mode is chosen
 197:.\Generated_Source\PSoC4/PWM_venstre.c **** *
 198:.\Generated_Source\PSoC4/PWM_venstre.c **** *******************************************************************************/
 199:.\Generated_Source\PSoC4/PWM_venstre.c **** void PWM_venstre_Enable(void) 
 200:.\Generated_Source\PSoC4/PWM_venstre.c **** {
  26              		.loc 1 200 0
  27              		.cfi_startproc
 201:.\Generated_Source\PSoC4/PWM_venstre.c ****     /* Globally Enable the Fixed Function Block chosen */
ARM GAS  C:\Users\PERNIL~1\AppData\Local\Temp\ccqDjgpn.s 			page 5


 202:.\Generated_Source\PSoC4/PWM_venstre.c ****     #if (PWM_venstre_UsingFixedFunction)
 203:.\Generated_Source\PSoC4/PWM_venstre.c ****         PWM_venstre_GLOBAL_ENABLE |= PWM_venstre_BLOCK_EN_MASK;
 204:.\Generated_Source\PSoC4/PWM_venstre.c ****         PWM_venstre_GLOBAL_STBY_ENABLE |= PWM_venstre_BLOCK_STBY_EN_MASK;
 205:.\Generated_Source\PSoC4/PWM_venstre.c ****     #endif /* (PWM_venstre_UsingFixedFunction) */
 206:.\Generated_Source\PSoC4/PWM_venstre.c **** 
 207:.\Generated_Source\PSoC4/PWM_venstre.c ****     /* Enable the PWM from the control register  */
 208:.\Generated_Source\PSoC4/PWM_venstre.c ****     #if (PWM_venstre_UseControl || PWM_venstre_UsingFixedFunction)
 209:.\Generated_Source\PSoC4/PWM_venstre.c ****         PWM_venstre_CONTROL |= PWM_venstre_CTRL_ENABLE;
  28              		.loc 1 209 0
  29 0000 024A     		ldr	r2, .L2
  30 0002 1178     		ldrb	r1, [r2]
  31 0004 8023     		mov	r3, #128
  32 0006 0B43     		orr	r3, r1
  33 0008 1370     		strb	r3, [r2]
 210:.\Generated_Source\PSoC4/PWM_venstre.c ****     #endif /* (PWM_venstre_UseControl || PWM_venstre_UsingFixedFunction) */
 211:.\Generated_Source\PSoC4/PWM_venstre.c **** }
  34              		.loc 1 211 0
  35              		@ sp needed
  36 000a 7047     		bx	lr
  37              	.L3:
  38              		.align	2
  39              	.L2:
  40 000c 73000F40 		.word	1074724979
  41              		.cfi_endproc
  42              	.LFE2:
  43              		.size	PWM_venstre_Enable, .-PWM_venstre_Enable
  44              		.section	.text.PWM_venstre_Stop,"ax",%progbits
  45              		.align	2
  46              		.global	PWM_venstre_Stop
  47              		.code	16
  48              		.thumb_func
  49              		.type	PWM_venstre_Stop, %function
  50              	PWM_venstre_Stop:
  51              	.LFB3:
 212:.\Generated_Source\PSoC4/PWM_venstre.c **** 
 213:.\Generated_Source\PSoC4/PWM_venstre.c **** 
 214:.\Generated_Source\PSoC4/PWM_venstre.c **** /*******************************************************************************
 215:.\Generated_Source\PSoC4/PWM_venstre.c **** * Function Name: PWM_venstre_Stop
 216:.\Generated_Source\PSoC4/PWM_venstre.c **** ********************************************************************************
 217:.\Generated_Source\PSoC4/PWM_venstre.c **** *
 218:.\Generated_Source\PSoC4/PWM_venstre.c **** * Summary:
 219:.\Generated_Source\PSoC4/PWM_venstre.c **** *  The stop function halts the PWM, but does not change any modes or disable
 220:.\Generated_Source\PSoC4/PWM_venstre.c **** *  interrupts.
 221:.\Generated_Source\PSoC4/PWM_venstre.c **** *
 222:.\Generated_Source\PSoC4/PWM_venstre.c **** * Parameters:
 223:.\Generated_Source\PSoC4/PWM_venstre.c **** *  None
 224:.\Generated_Source\PSoC4/PWM_venstre.c **** *
 225:.\Generated_Source\PSoC4/PWM_venstre.c **** * Return:
 226:.\Generated_Source\PSoC4/PWM_venstre.c **** *  None
 227:.\Generated_Source\PSoC4/PWM_venstre.c **** *
 228:.\Generated_Source\PSoC4/PWM_venstre.c **** * Side Effects:
 229:.\Generated_Source\PSoC4/PWM_venstre.c **** *  If the Enable mode is set to Hardware only then this function
 230:.\Generated_Source\PSoC4/PWM_venstre.c **** *  has no effect on the operation of the PWM
 231:.\Generated_Source\PSoC4/PWM_venstre.c **** *
 232:.\Generated_Source\PSoC4/PWM_venstre.c **** *******************************************************************************/
 233:.\Generated_Source\PSoC4/PWM_venstre.c **** void PWM_venstre_Stop(void) 
 234:.\Generated_Source\PSoC4/PWM_venstre.c **** {
ARM GAS  C:\Users\PERNIL~1\AppData\Local\Temp\ccqDjgpn.s 			page 6


  52              		.loc 1 234 0
  53              		.cfi_startproc
 235:.\Generated_Source\PSoC4/PWM_venstre.c ****     #if (PWM_venstre_UseControl || PWM_venstre_UsingFixedFunction)
 236:.\Generated_Source\PSoC4/PWM_venstre.c ****         PWM_venstre_CONTROL &= ((uint8)(~PWM_venstre_CTRL_ENABLE));
  54              		.loc 1 236 0
  55 0000 024A     		ldr	r2, .L5
  56 0002 1178     		ldrb	r1, [r2]
  57 0004 7F23     		mov	r3, #127
  58 0006 0B40     		and	r3, r1
  59 0008 1370     		strb	r3, [r2]
 237:.\Generated_Source\PSoC4/PWM_venstre.c ****     #endif /* (PWM_venstre_UseControl || PWM_venstre_UsingFixedFunction) */
 238:.\Generated_Source\PSoC4/PWM_venstre.c **** 
 239:.\Generated_Source\PSoC4/PWM_venstre.c ****     /* Globally disable the Fixed Function Block chosen */
 240:.\Generated_Source\PSoC4/PWM_venstre.c ****     #if (PWM_venstre_UsingFixedFunction)
 241:.\Generated_Source\PSoC4/PWM_venstre.c ****         PWM_venstre_GLOBAL_ENABLE &= ((uint8)(~PWM_venstre_BLOCK_EN_MASK));
 242:.\Generated_Source\PSoC4/PWM_venstre.c ****         PWM_venstre_GLOBAL_STBY_ENABLE &= ((uint8)(~PWM_venstre_BLOCK_STBY_EN_MASK));
 243:.\Generated_Source\PSoC4/PWM_venstre.c ****     #endif /* (PWM_venstre_UsingFixedFunction) */
 244:.\Generated_Source\PSoC4/PWM_venstre.c **** }
  60              		.loc 1 244 0
  61              		@ sp needed
  62 000a 7047     		bx	lr
  63              	.L6:
  64              		.align	2
  65              	.L5:
  66 000c 73000F40 		.word	1074724979
  67              		.cfi_endproc
  68              	.LFE3:
  69              		.size	PWM_venstre_Stop, .-PWM_venstre_Stop
  70              		.section	.text.PWM_venstre_WriteCounter,"ax",%progbits
  71              		.align	2
  72              		.global	PWM_venstre_WriteCounter
  73              		.code	16
  74              		.thumb_func
  75              		.type	PWM_venstre_WriteCounter, %function
  76              	PWM_venstre_WriteCounter:
  77              	.LFB4:
 245:.\Generated_Source\PSoC4/PWM_venstre.c **** 
 246:.\Generated_Source\PSoC4/PWM_venstre.c **** #if (PWM_venstre_UseOneCompareMode)
 247:.\Generated_Source\PSoC4/PWM_venstre.c ****     #if (PWM_venstre_CompareMode1SW)
 248:.\Generated_Source\PSoC4/PWM_venstre.c **** 
 249:.\Generated_Source\PSoC4/PWM_venstre.c **** 
 250:.\Generated_Source\PSoC4/PWM_venstre.c ****         /*******************************************************************************
 251:.\Generated_Source\PSoC4/PWM_venstre.c ****         * Function Name: PWM_venstre_SetCompareMode
 252:.\Generated_Source\PSoC4/PWM_venstre.c ****         ********************************************************************************
 253:.\Generated_Source\PSoC4/PWM_venstre.c ****         *
 254:.\Generated_Source\PSoC4/PWM_venstre.c ****         * Summary:
 255:.\Generated_Source\PSoC4/PWM_venstre.c ****         *  This function writes the Compare Mode for the pwm output when in Dither mode,
 256:.\Generated_Source\PSoC4/PWM_venstre.c ****         *  Center Align Mode or One Output Mode.
 257:.\Generated_Source\PSoC4/PWM_venstre.c ****         *
 258:.\Generated_Source\PSoC4/PWM_venstre.c ****         * Parameters:
 259:.\Generated_Source\PSoC4/PWM_venstre.c ****         *  comparemode:  The new compare mode for the PWM output. Use the compare types
 260:.\Generated_Source\PSoC4/PWM_venstre.c ****         *                defined in the H file as input arguments.
 261:.\Generated_Source\PSoC4/PWM_venstre.c ****         *
 262:.\Generated_Source\PSoC4/PWM_venstre.c ****         * Return:
 263:.\Generated_Source\PSoC4/PWM_venstre.c ****         *  None
 264:.\Generated_Source\PSoC4/PWM_venstre.c ****         *
 265:.\Generated_Source\PSoC4/PWM_venstre.c ****         *******************************************************************************/
ARM GAS  C:\Users\PERNIL~1\AppData\Local\Temp\ccqDjgpn.s 			page 7


 266:.\Generated_Source\PSoC4/PWM_venstre.c ****         void PWM_venstre_SetCompareMode(uint8 comparemode) 
 267:.\Generated_Source\PSoC4/PWM_venstre.c ****         {
 268:.\Generated_Source\PSoC4/PWM_venstre.c ****             #if(PWM_venstre_UsingFixedFunction)
 269:.\Generated_Source\PSoC4/PWM_venstre.c **** 
 270:.\Generated_Source\PSoC4/PWM_venstre.c ****                 #if(0 != PWM_venstre_CTRL_CMPMODE1_SHIFT)
 271:.\Generated_Source\PSoC4/PWM_venstre.c ****                     uint8 comparemodemasked = ((uint8)((uint8)comparemode << PWM_venstre_CTRL_CMPMO
 272:.\Generated_Source\PSoC4/PWM_venstre.c ****                 #else
 273:.\Generated_Source\PSoC4/PWM_venstre.c ****                     uint8 comparemodemasked = comparemode;
 274:.\Generated_Source\PSoC4/PWM_venstre.c ****                 #endif /* (0 != PWM_venstre_CTRL_CMPMODE1_SHIFT) */
 275:.\Generated_Source\PSoC4/PWM_venstre.c **** 
 276:.\Generated_Source\PSoC4/PWM_venstre.c ****                 PWM_venstre_CONTROL3 &= ((uint8)(~PWM_venstre_CTRL_CMPMODE1_MASK)); /*Clear Existin
 277:.\Generated_Source\PSoC4/PWM_venstre.c ****                 PWM_venstre_CONTROL3 |= comparemodemasked;
 278:.\Generated_Source\PSoC4/PWM_venstre.c **** 
 279:.\Generated_Source\PSoC4/PWM_venstre.c ****             #elif (PWM_venstre_UseControl)
 280:.\Generated_Source\PSoC4/PWM_venstre.c **** 
 281:.\Generated_Source\PSoC4/PWM_venstre.c ****                 #if(0 != PWM_venstre_CTRL_CMPMODE1_SHIFT)
 282:.\Generated_Source\PSoC4/PWM_venstre.c ****                     uint8 comparemode1masked = ((uint8)((uint8)comparemode << PWM_venstre_CTRL_CMPM
 283:.\Generated_Source\PSoC4/PWM_venstre.c ****                                                 PWM_venstre_CTRL_CMPMODE1_MASK;
 284:.\Generated_Source\PSoC4/PWM_venstre.c ****                 #else
 285:.\Generated_Source\PSoC4/PWM_venstre.c ****                     uint8 comparemode1masked = comparemode & PWM_venstre_CTRL_CMPMODE1_MASK;
 286:.\Generated_Source\PSoC4/PWM_venstre.c ****                 #endif /* (0 != PWM_venstre_CTRL_CMPMODE1_SHIFT) */
 287:.\Generated_Source\PSoC4/PWM_venstre.c **** 
 288:.\Generated_Source\PSoC4/PWM_venstre.c ****                 #if(0 != PWM_venstre_CTRL_CMPMODE2_SHIFT)
 289:.\Generated_Source\PSoC4/PWM_venstre.c ****                     uint8 comparemode2masked = ((uint8)((uint8)comparemode << PWM_venstre_CTRL_CMPM
 290:.\Generated_Source\PSoC4/PWM_venstre.c ****                                                PWM_venstre_CTRL_CMPMODE2_MASK;
 291:.\Generated_Source\PSoC4/PWM_venstre.c ****                 #else
 292:.\Generated_Source\PSoC4/PWM_venstre.c ****                     uint8 comparemode2masked = comparemode & PWM_venstre_CTRL_CMPMODE2_MASK;
 293:.\Generated_Source\PSoC4/PWM_venstre.c ****                 #endif /* (0 != PWM_venstre_CTRL_CMPMODE2_SHIFT) */
 294:.\Generated_Source\PSoC4/PWM_venstre.c **** 
 295:.\Generated_Source\PSoC4/PWM_venstre.c ****                 /*Clear existing mode */
 296:.\Generated_Source\PSoC4/PWM_venstre.c ****                 PWM_venstre_CONTROL &= ((uint8)(~(PWM_venstre_CTRL_CMPMODE1_MASK |
 297:.\Generated_Source\PSoC4/PWM_venstre.c ****                                             PWM_venstre_CTRL_CMPMODE2_MASK)));
 298:.\Generated_Source\PSoC4/PWM_venstre.c ****                 PWM_venstre_CONTROL |= (comparemode1masked | comparemode2masked);
 299:.\Generated_Source\PSoC4/PWM_venstre.c **** 
 300:.\Generated_Source\PSoC4/PWM_venstre.c ****             #else
 301:.\Generated_Source\PSoC4/PWM_venstre.c ****                 uint8 temp = comparemode;
 302:.\Generated_Source\PSoC4/PWM_venstre.c ****             #endif /* (PWM_venstre_UsingFixedFunction) */
 303:.\Generated_Source\PSoC4/PWM_venstre.c ****         }
 304:.\Generated_Source\PSoC4/PWM_venstre.c ****     #endif /* PWM_venstre_CompareMode1SW */
 305:.\Generated_Source\PSoC4/PWM_venstre.c **** 
 306:.\Generated_Source\PSoC4/PWM_venstre.c **** #else /* UseOneCompareMode */
 307:.\Generated_Source\PSoC4/PWM_venstre.c **** 
 308:.\Generated_Source\PSoC4/PWM_venstre.c ****     #if (PWM_venstre_CompareMode1SW)
 309:.\Generated_Source\PSoC4/PWM_venstre.c **** 
 310:.\Generated_Source\PSoC4/PWM_venstre.c **** 
 311:.\Generated_Source\PSoC4/PWM_venstre.c ****         /*******************************************************************************
 312:.\Generated_Source\PSoC4/PWM_venstre.c ****         * Function Name: PWM_venstre_SetCompareMode1
 313:.\Generated_Source\PSoC4/PWM_venstre.c ****         ********************************************************************************
 314:.\Generated_Source\PSoC4/PWM_venstre.c ****         *
 315:.\Generated_Source\PSoC4/PWM_venstre.c ****         * Summary:
 316:.\Generated_Source\PSoC4/PWM_venstre.c ****         *  This function writes the Compare Mode for the pwm or pwm1 output
 317:.\Generated_Source\PSoC4/PWM_venstre.c ****         *
 318:.\Generated_Source\PSoC4/PWM_venstre.c ****         * Parameters:
 319:.\Generated_Source\PSoC4/PWM_venstre.c ****         *  comparemode:  The new compare mode for the PWM output. Use the compare types
 320:.\Generated_Source\PSoC4/PWM_venstre.c ****         *                defined in the H file as input arguments.
 321:.\Generated_Source\PSoC4/PWM_venstre.c ****         *
 322:.\Generated_Source\PSoC4/PWM_venstre.c ****         * Return:
ARM GAS  C:\Users\PERNIL~1\AppData\Local\Temp\ccqDjgpn.s 			page 8


 323:.\Generated_Source\PSoC4/PWM_venstre.c ****         *  None
 324:.\Generated_Source\PSoC4/PWM_venstre.c ****         *
 325:.\Generated_Source\PSoC4/PWM_venstre.c ****         *******************************************************************************/
 326:.\Generated_Source\PSoC4/PWM_venstre.c ****         void PWM_venstre_SetCompareMode1(uint8 comparemode) 
 327:.\Generated_Source\PSoC4/PWM_venstre.c ****         {
 328:.\Generated_Source\PSoC4/PWM_venstre.c ****             #if(0 != PWM_venstre_CTRL_CMPMODE1_SHIFT)
 329:.\Generated_Source\PSoC4/PWM_venstre.c ****                 uint8 comparemodemasked = ((uint8)((uint8)comparemode << PWM_venstre_CTRL_CMPMODE1_
 330:.\Generated_Source\PSoC4/PWM_venstre.c ****                                            PWM_venstre_CTRL_CMPMODE1_MASK;
 331:.\Generated_Source\PSoC4/PWM_venstre.c ****             #else
 332:.\Generated_Source\PSoC4/PWM_venstre.c ****                 uint8 comparemodemasked = comparemode & PWM_venstre_CTRL_CMPMODE1_MASK;
 333:.\Generated_Source\PSoC4/PWM_venstre.c ****             #endif /* (0 != PWM_venstre_CTRL_CMPMODE1_SHIFT) */
 334:.\Generated_Source\PSoC4/PWM_venstre.c **** 
 335:.\Generated_Source\PSoC4/PWM_venstre.c ****             #if (PWM_venstre_UseControl)
 336:.\Generated_Source\PSoC4/PWM_venstre.c ****                 PWM_venstre_CONTROL &= ((uint8)(~PWM_venstre_CTRL_CMPMODE1_MASK)); /*Clear existing
 337:.\Generated_Source\PSoC4/PWM_venstre.c ****                 PWM_venstre_CONTROL |= comparemodemasked;
 338:.\Generated_Source\PSoC4/PWM_venstre.c ****             #endif /* (PWM_venstre_UseControl) */
 339:.\Generated_Source\PSoC4/PWM_venstre.c ****         }
 340:.\Generated_Source\PSoC4/PWM_venstre.c ****     #endif /* PWM_venstre_CompareMode1SW */
 341:.\Generated_Source\PSoC4/PWM_venstre.c **** 
 342:.\Generated_Source\PSoC4/PWM_venstre.c **** #if (PWM_venstre_CompareMode2SW)
 343:.\Generated_Source\PSoC4/PWM_venstre.c **** 
 344:.\Generated_Source\PSoC4/PWM_venstre.c **** 
 345:.\Generated_Source\PSoC4/PWM_venstre.c ****     /*******************************************************************************
 346:.\Generated_Source\PSoC4/PWM_venstre.c ****     * Function Name: PWM_venstre_SetCompareMode2
 347:.\Generated_Source\PSoC4/PWM_venstre.c ****     ********************************************************************************
 348:.\Generated_Source\PSoC4/PWM_venstre.c ****     *
 349:.\Generated_Source\PSoC4/PWM_venstre.c ****     * Summary:
 350:.\Generated_Source\PSoC4/PWM_venstre.c ****     *  This function writes the Compare Mode for the pwm or pwm2 output
 351:.\Generated_Source\PSoC4/PWM_venstre.c ****     *
 352:.\Generated_Source\PSoC4/PWM_venstre.c ****     * Parameters:
 353:.\Generated_Source\PSoC4/PWM_venstre.c ****     *  comparemode:  The new compare mode for the PWM output. Use the compare types
 354:.\Generated_Source\PSoC4/PWM_venstre.c ****     *                defined in the H file as input arguments.
 355:.\Generated_Source\PSoC4/PWM_venstre.c ****     *
 356:.\Generated_Source\PSoC4/PWM_venstre.c ****     * Return:
 357:.\Generated_Source\PSoC4/PWM_venstre.c ****     *  None
 358:.\Generated_Source\PSoC4/PWM_venstre.c ****     *
 359:.\Generated_Source\PSoC4/PWM_venstre.c ****     *******************************************************************************/
 360:.\Generated_Source\PSoC4/PWM_venstre.c ****     void PWM_venstre_SetCompareMode2(uint8 comparemode) 
 361:.\Generated_Source\PSoC4/PWM_venstre.c ****     {
 362:.\Generated_Source\PSoC4/PWM_venstre.c **** 
 363:.\Generated_Source\PSoC4/PWM_venstre.c ****         #if(0 != PWM_venstre_CTRL_CMPMODE2_SHIFT)
 364:.\Generated_Source\PSoC4/PWM_venstre.c ****             uint8 comparemodemasked = ((uint8)((uint8)comparemode << PWM_venstre_CTRL_CMPMODE2_SHIF
 365:.\Generated_Source\PSoC4/PWM_venstre.c ****                                                  PWM_venstre_CTRL_CMPMODE2_MASK;
 366:.\Generated_Source\PSoC4/PWM_venstre.c ****         #else
 367:.\Generated_Source\PSoC4/PWM_venstre.c ****             uint8 comparemodemasked = comparemode & PWM_venstre_CTRL_CMPMODE2_MASK;
 368:.\Generated_Source\PSoC4/PWM_venstre.c ****         #endif /* (0 != PWM_venstre_CTRL_CMPMODE2_SHIFT) */
 369:.\Generated_Source\PSoC4/PWM_venstre.c **** 
 370:.\Generated_Source\PSoC4/PWM_venstre.c ****         #if (PWM_venstre_UseControl)
 371:.\Generated_Source\PSoC4/PWM_venstre.c ****             PWM_venstre_CONTROL &= ((uint8)(~PWM_venstre_CTRL_CMPMODE2_MASK)); /*Clear existing mod
 372:.\Generated_Source\PSoC4/PWM_venstre.c ****             PWM_venstre_CONTROL |= comparemodemasked;
 373:.\Generated_Source\PSoC4/PWM_venstre.c ****         #endif /* (PWM_venstre_UseControl) */
 374:.\Generated_Source\PSoC4/PWM_venstre.c ****     }
 375:.\Generated_Source\PSoC4/PWM_venstre.c ****     #endif /*PWM_venstre_CompareMode2SW */
 376:.\Generated_Source\PSoC4/PWM_venstre.c **** 
 377:.\Generated_Source\PSoC4/PWM_venstre.c **** #endif /* UseOneCompareMode */
 378:.\Generated_Source\PSoC4/PWM_venstre.c **** 
 379:.\Generated_Source\PSoC4/PWM_venstre.c **** 
ARM GAS  C:\Users\PERNIL~1\AppData\Local\Temp\ccqDjgpn.s 			page 9


 380:.\Generated_Source\PSoC4/PWM_venstre.c **** #if (!PWM_venstre_UsingFixedFunction)
 381:.\Generated_Source\PSoC4/PWM_venstre.c **** 
 382:.\Generated_Source\PSoC4/PWM_venstre.c **** 
 383:.\Generated_Source\PSoC4/PWM_venstre.c ****     /*******************************************************************************
 384:.\Generated_Source\PSoC4/PWM_venstre.c ****     * Function Name: PWM_venstre_WriteCounter
 385:.\Generated_Source\PSoC4/PWM_venstre.c ****     ********************************************************************************
 386:.\Generated_Source\PSoC4/PWM_venstre.c ****     *
 387:.\Generated_Source\PSoC4/PWM_venstre.c ****     * Summary:
 388:.\Generated_Source\PSoC4/PWM_venstre.c ****     *  Writes a new counter value directly to the counter register. This will be
 389:.\Generated_Source\PSoC4/PWM_venstre.c ****     *  implemented for that currently running period and only that period. This API
 390:.\Generated_Source\PSoC4/PWM_venstre.c ****     *  is valid only for UDB implementation and not available for fixed function
 391:.\Generated_Source\PSoC4/PWM_venstre.c ****     *  PWM implementation.
 392:.\Generated_Source\PSoC4/PWM_venstre.c ****     *
 393:.\Generated_Source\PSoC4/PWM_venstre.c ****     * Parameters:
 394:.\Generated_Source\PSoC4/PWM_venstre.c ****     *  counter:  The period new period counter value.
 395:.\Generated_Source\PSoC4/PWM_venstre.c ****     *
 396:.\Generated_Source\PSoC4/PWM_venstre.c ****     * Return:
 397:.\Generated_Source\PSoC4/PWM_venstre.c ****     *  None
 398:.\Generated_Source\PSoC4/PWM_venstre.c ****     *
 399:.\Generated_Source\PSoC4/PWM_venstre.c ****     * Side Effects:
 400:.\Generated_Source\PSoC4/PWM_venstre.c ****     *  The PWM Period will be reloaded when a counter value will be a zero
 401:.\Generated_Source\PSoC4/PWM_venstre.c ****     *
 402:.\Generated_Source\PSoC4/PWM_venstre.c ****     *******************************************************************************/
 403:.\Generated_Source\PSoC4/PWM_venstre.c ****     void PWM_venstre_WriteCounter(uint8 counter) \
 404:.\Generated_Source\PSoC4/PWM_venstre.c ****                                        
 405:.\Generated_Source\PSoC4/PWM_venstre.c ****     {
  78              		.loc 1 405 0
  79              		.cfi_startproc
  80              	.LVL0:
 406:.\Generated_Source\PSoC4/PWM_venstre.c ****         CY_SET_REG8(PWM_venstre_COUNTER_LSB_PTR, counter);
  81              		.loc 1 406 0
  82 0000 014B     		ldr	r3, .L8
  83 0002 1870     		strb	r0, [r3]
 407:.\Generated_Source\PSoC4/PWM_venstre.c ****     }
  84              		.loc 1 407 0
  85              		@ sp needed
  86 0004 7047     		bx	lr
  87              	.L9:
  88 0006 C046     		.align	2
  89              	.L8:
  90 0008 03000F40 		.word	1074724867
  91              		.cfi_endproc
  92              	.LFE4:
  93              		.size	PWM_venstre_WriteCounter, .-PWM_venstre_WriteCounter
  94              		.section	.text.PWM_venstre_ReadCounter,"ax",%progbits
  95              		.align	2
  96              		.global	PWM_venstre_ReadCounter
  97              		.code	16
  98              		.thumb_func
  99              		.type	PWM_venstre_ReadCounter, %function
 100              	PWM_venstre_ReadCounter:
 101              	.LFB5:
 408:.\Generated_Source\PSoC4/PWM_venstre.c **** 
 409:.\Generated_Source\PSoC4/PWM_venstre.c **** 
 410:.\Generated_Source\PSoC4/PWM_venstre.c ****     /*******************************************************************************
 411:.\Generated_Source\PSoC4/PWM_venstre.c ****     * Function Name: PWM_venstre_ReadCounter
 412:.\Generated_Source\PSoC4/PWM_venstre.c ****     ********************************************************************************
ARM GAS  C:\Users\PERNIL~1\AppData\Local\Temp\ccqDjgpn.s 			page 10


 413:.\Generated_Source\PSoC4/PWM_venstre.c ****     *
 414:.\Generated_Source\PSoC4/PWM_venstre.c ****     * Summary:
 415:.\Generated_Source\PSoC4/PWM_venstre.c ****     *  This function returns the current value of the counter.  It doesn't matter
 416:.\Generated_Source\PSoC4/PWM_venstre.c ****     *  if the counter is enabled or running.
 417:.\Generated_Source\PSoC4/PWM_venstre.c ****     *
 418:.\Generated_Source\PSoC4/PWM_venstre.c ****     * Parameters:
 419:.\Generated_Source\PSoC4/PWM_venstre.c ****     *  None
 420:.\Generated_Source\PSoC4/PWM_venstre.c ****     *
 421:.\Generated_Source\PSoC4/PWM_venstre.c ****     * Return:
 422:.\Generated_Source\PSoC4/PWM_venstre.c ****     *  The current value of the counter.
 423:.\Generated_Source\PSoC4/PWM_venstre.c ****     *
 424:.\Generated_Source\PSoC4/PWM_venstre.c ****     *******************************************************************************/
 425:.\Generated_Source\PSoC4/PWM_venstre.c ****     uint8 PWM_venstre_ReadCounter(void) 
 426:.\Generated_Source\PSoC4/PWM_venstre.c ****     {
 102              		.loc 1 426 0
 103              		.cfi_startproc
 427:.\Generated_Source\PSoC4/PWM_venstre.c ****         /* Force capture by reading Accumulator */
 428:.\Generated_Source\PSoC4/PWM_venstre.c ****         /* Must first do a software capture to be able to read the counter */
 429:.\Generated_Source\PSoC4/PWM_venstre.c ****         /* It is up to the user code to make sure there isn't already captured data in the FIFO */
 430:.\Generated_Source\PSoC4/PWM_venstre.c ****           (void)CY_GET_REG8(PWM_venstre_COUNTERCAP_LSB_PTR_8BIT);
 104              		.loc 1 430 0
 105 0000 024B     		ldr	r3, .L11
 106 0002 1B78     		ldrb	r3, [r3]
 431:.\Generated_Source\PSoC4/PWM_venstre.c **** 
 432:.\Generated_Source\PSoC4/PWM_venstre.c ****         /* Read the data from the FIFO */
 433:.\Generated_Source\PSoC4/PWM_venstre.c ****         return (CY_GET_REG8(PWM_venstre_CAPTURE_LSB_PTR));
 107              		.loc 1 433 0
 108 0004 024B     		ldr	r3, .L11+4
 109 0006 1878     		ldrb	r0, [r3]
 110 0008 C0B2     		uxtb	r0, r0
 434:.\Generated_Source\PSoC4/PWM_venstre.c ****     }
 111              		.loc 1 434 0
 112              		@ sp needed
 113 000a 7047     		bx	lr
 114              	.L12:
 115              		.align	2
 116              	.L11:
 117 000c 13000F40 		.word	1074724883
 118 0010 53000F40 		.word	1074724947
 119              		.cfi_endproc
 120              	.LFE5:
 121              		.size	PWM_venstre_ReadCounter, .-PWM_venstre_ReadCounter
 122              		.section	.text.PWM_venstre_WritePeriod,"ax",%progbits
 123              		.align	2
 124              		.global	PWM_venstre_WritePeriod
 125              		.code	16
 126              		.thumb_func
 127              		.type	PWM_venstre_WritePeriod, %function
 128              	PWM_venstre_WritePeriod:
 129              	.LFB7:
 435:.\Generated_Source\PSoC4/PWM_venstre.c **** 
 436:.\Generated_Source\PSoC4/PWM_venstre.c ****     #if (PWM_venstre_UseStatus)
 437:.\Generated_Source\PSoC4/PWM_venstre.c **** 
 438:.\Generated_Source\PSoC4/PWM_venstre.c **** 
 439:.\Generated_Source\PSoC4/PWM_venstre.c ****         /*******************************************************************************
 440:.\Generated_Source\PSoC4/PWM_venstre.c ****         * Function Name: PWM_venstre_ClearFIFO
 441:.\Generated_Source\PSoC4/PWM_venstre.c ****         ********************************************************************************
ARM GAS  C:\Users\PERNIL~1\AppData\Local\Temp\ccqDjgpn.s 			page 11


 442:.\Generated_Source\PSoC4/PWM_venstre.c ****         *
 443:.\Generated_Source\PSoC4/PWM_venstre.c ****         * Summary:
 444:.\Generated_Source\PSoC4/PWM_venstre.c ****         *  This function clears all capture data from the capture FIFO
 445:.\Generated_Source\PSoC4/PWM_venstre.c ****         *
 446:.\Generated_Source\PSoC4/PWM_venstre.c ****         * Parameters:
 447:.\Generated_Source\PSoC4/PWM_venstre.c ****         *  None
 448:.\Generated_Source\PSoC4/PWM_venstre.c ****         *
 449:.\Generated_Source\PSoC4/PWM_venstre.c ****         * Return:
 450:.\Generated_Source\PSoC4/PWM_venstre.c ****         *  None
 451:.\Generated_Source\PSoC4/PWM_venstre.c ****         *
 452:.\Generated_Source\PSoC4/PWM_venstre.c ****         *******************************************************************************/
 453:.\Generated_Source\PSoC4/PWM_venstre.c ****         void PWM_venstre_ClearFIFO(void) 
 454:.\Generated_Source\PSoC4/PWM_venstre.c ****         {
 455:.\Generated_Source\PSoC4/PWM_venstre.c ****             while(0u != (PWM_venstre_ReadStatusRegister() & PWM_venstre_STATUS_FIFONEMPTY))
 456:.\Generated_Source\PSoC4/PWM_venstre.c ****             {
 457:.\Generated_Source\PSoC4/PWM_venstre.c ****                 (void)PWM_venstre_ReadCapture();
 458:.\Generated_Source\PSoC4/PWM_venstre.c ****             }
 459:.\Generated_Source\PSoC4/PWM_venstre.c ****         }
 460:.\Generated_Source\PSoC4/PWM_venstre.c **** 
 461:.\Generated_Source\PSoC4/PWM_venstre.c ****     #endif /* PWM_venstre_UseStatus */
 462:.\Generated_Source\PSoC4/PWM_venstre.c **** 
 463:.\Generated_Source\PSoC4/PWM_venstre.c **** #endif /* !PWM_venstre_UsingFixedFunction */
 464:.\Generated_Source\PSoC4/PWM_venstre.c **** 
 465:.\Generated_Source\PSoC4/PWM_venstre.c **** 
 466:.\Generated_Source\PSoC4/PWM_venstre.c **** /*******************************************************************************
 467:.\Generated_Source\PSoC4/PWM_venstre.c **** * Function Name: PWM_venstre_WritePeriod
 468:.\Generated_Source\PSoC4/PWM_venstre.c **** ********************************************************************************
 469:.\Generated_Source\PSoC4/PWM_venstre.c **** *
 470:.\Generated_Source\PSoC4/PWM_venstre.c **** * Summary:
 471:.\Generated_Source\PSoC4/PWM_venstre.c **** *  This function is used to change the period of the counter.  The new period
 472:.\Generated_Source\PSoC4/PWM_venstre.c **** *  will be loaded the next time terminal count is detected.
 473:.\Generated_Source\PSoC4/PWM_venstre.c **** *
 474:.\Generated_Source\PSoC4/PWM_venstre.c **** * Parameters:
 475:.\Generated_Source\PSoC4/PWM_venstre.c **** *  period:  Period value. May be between 1 and (2^Resolution)-1.  A value of 0
 476:.\Generated_Source\PSoC4/PWM_venstre.c **** *           will result in the counter remaining at zero.
 477:.\Generated_Source\PSoC4/PWM_venstre.c **** *
 478:.\Generated_Source\PSoC4/PWM_venstre.c **** * Return:
 479:.\Generated_Source\PSoC4/PWM_venstre.c **** *  None
 480:.\Generated_Source\PSoC4/PWM_venstre.c **** *
 481:.\Generated_Source\PSoC4/PWM_venstre.c **** *******************************************************************************/
 482:.\Generated_Source\PSoC4/PWM_venstre.c **** void PWM_venstre_WritePeriod(uint8 period) 
 483:.\Generated_Source\PSoC4/PWM_venstre.c **** {
 130              		.loc 1 483 0
 131              		.cfi_startproc
 132              	.LVL1:
 484:.\Generated_Source\PSoC4/PWM_venstre.c ****     #if(PWM_venstre_UsingFixedFunction)
 485:.\Generated_Source\PSoC4/PWM_venstre.c ****         CY_SET_REG16(PWM_venstre_PERIOD_LSB_PTR, (uint16)period);
 486:.\Generated_Source\PSoC4/PWM_venstre.c ****     #else
 487:.\Generated_Source\PSoC4/PWM_venstre.c ****         CY_SET_REG8(PWM_venstre_PERIOD_LSB_PTR, period);
 133              		.loc 1 487 0
 134 0000 014B     		ldr	r3, .L14
 135 0002 1870     		strb	r0, [r3]
 488:.\Generated_Source\PSoC4/PWM_venstre.c ****     #endif /* (PWM_venstre_UsingFixedFunction) */
 489:.\Generated_Source\PSoC4/PWM_venstre.c **** }
 136              		.loc 1 489 0
 137              		@ sp needed
 138 0004 7047     		bx	lr
ARM GAS  C:\Users\PERNIL~1\AppData\Local\Temp\ccqDjgpn.s 			page 12


 139              	.L15:
 140 0006 C046     		.align	2
 141              	.L14:
 142 0008 43000F40 		.word	1074724931
 143              		.cfi_endproc
 144              	.LFE7:
 145              		.size	PWM_venstre_WritePeriod, .-PWM_venstre_WritePeriod
 146              		.section	.text.PWM_venstre_WriteCompare,"ax",%progbits
 147              		.align	2
 148              		.global	PWM_venstre_WriteCompare
 149              		.code	16
 150              		.thumb_func
 151              		.type	PWM_venstre_WriteCompare, %function
 152              	PWM_venstre_WriteCompare:
 153              	.LFB8:
 490:.\Generated_Source\PSoC4/PWM_venstre.c **** 
 491:.\Generated_Source\PSoC4/PWM_venstre.c **** #if (PWM_venstre_UseOneCompareMode)
 492:.\Generated_Source\PSoC4/PWM_venstre.c **** 
 493:.\Generated_Source\PSoC4/PWM_venstre.c **** 
 494:.\Generated_Source\PSoC4/PWM_venstre.c ****     /*******************************************************************************
 495:.\Generated_Source\PSoC4/PWM_venstre.c ****     * Function Name: PWM_venstre_WriteCompare
 496:.\Generated_Source\PSoC4/PWM_venstre.c ****     ********************************************************************************
 497:.\Generated_Source\PSoC4/PWM_venstre.c ****     *
 498:.\Generated_Source\PSoC4/PWM_venstre.c ****     * Summary:
 499:.\Generated_Source\PSoC4/PWM_venstre.c ****     *  This funtion is used to change the compare1 value when the PWM is in Dither
 500:.\Generated_Source\PSoC4/PWM_venstre.c ****     *  mode. The compare output will reflect the new value on the next UDB clock.
 501:.\Generated_Source\PSoC4/PWM_venstre.c ****     *  The compare output will be driven high when the present counter value is
 502:.\Generated_Source\PSoC4/PWM_venstre.c ****     *  compared to the compare value based on the compare mode defined in
 503:.\Generated_Source\PSoC4/PWM_venstre.c ****     *  Dither Mode.
 504:.\Generated_Source\PSoC4/PWM_venstre.c ****     *
 505:.\Generated_Source\PSoC4/PWM_venstre.c ****     * Parameters:
 506:.\Generated_Source\PSoC4/PWM_venstre.c ****     *  compare:  New compare value.
 507:.\Generated_Source\PSoC4/PWM_venstre.c ****     *
 508:.\Generated_Source\PSoC4/PWM_venstre.c ****     * Return:
 509:.\Generated_Source\PSoC4/PWM_venstre.c ****     *  None
 510:.\Generated_Source\PSoC4/PWM_venstre.c ****     *
 511:.\Generated_Source\PSoC4/PWM_venstre.c ****     * Side Effects:
 512:.\Generated_Source\PSoC4/PWM_venstre.c ****     *  This function is only available if the PWM mode parameter is set to
 513:.\Generated_Source\PSoC4/PWM_venstre.c ****     *  Dither Mode, Center Aligned Mode or One Output Mode
 514:.\Generated_Source\PSoC4/PWM_venstre.c ****     *
 515:.\Generated_Source\PSoC4/PWM_venstre.c ****     *******************************************************************************/
 516:.\Generated_Source\PSoC4/PWM_venstre.c ****     void PWM_venstre_WriteCompare(uint8 compare) \
 517:.\Generated_Source\PSoC4/PWM_venstre.c ****                                        
 518:.\Generated_Source\PSoC4/PWM_venstre.c ****     {
 154              		.loc 1 518 0
 155              		.cfi_startproc
 156              	.LVL2:
 519:.\Generated_Source\PSoC4/PWM_venstre.c ****         #if(PWM_venstre_UsingFixedFunction)
 520:.\Generated_Source\PSoC4/PWM_venstre.c ****             CY_SET_REG16(PWM_venstre_COMPARE1_LSB_PTR, (uint16)compare);
 521:.\Generated_Source\PSoC4/PWM_venstre.c ****         #else
 522:.\Generated_Source\PSoC4/PWM_venstre.c ****             CY_SET_REG8(PWM_venstre_COMPARE1_LSB_PTR, compare);
 157              		.loc 1 522 0
 158 0000 014B     		ldr	r3, .L17
 159 0002 1870     		strb	r0, [r3]
 523:.\Generated_Source\PSoC4/PWM_venstre.c ****         #endif /* (PWM_venstre_UsingFixedFunction) */
 524:.\Generated_Source\PSoC4/PWM_venstre.c **** 
 525:.\Generated_Source\PSoC4/PWM_venstre.c ****         #if (PWM_venstre_PWMMode == PWM_venstre__B_PWM__DITHER)
ARM GAS  C:\Users\PERNIL~1\AppData\Local\Temp\ccqDjgpn.s 			page 13


 526:.\Generated_Source\PSoC4/PWM_venstre.c ****             #if(PWM_venstre_UsingFixedFunction)
 527:.\Generated_Source\PSoC4/PWM_venstre.c ****                 CY_SET_REG16(PWM_venstre_COMPARE2_LSB_PTR, (uint16)(compare + 1u));
 528:.\Generated_Source\PSoC4/PWM_venstre.c ****             #else
 529:.\Generated_Source\PSoC4/PWM_venstre.c ****                 CY_SET_REG8(PWM_venstre_COMPARE2_LSB_PTR, (compare + 1u));
 530:.\Generated_Source\PSoC4/PWM_venstre.c ****             #endif /* (PWM_venstre_UsingFixedFunction) */
 531:.\Generated_Source\PSoC4/PWM_venstre.c ****         #endif /* (PWM_venstre_PWMMode == PWM_venstre__B_PWM__DITHER) */
 532:.\Generated_Source\PSoC4/PWM_venstre.c ****     }
 160              		.loc 1 532 0
 161              		@ sp needed
 162 0004 7047     		bx	lr
 163              	.L18:
 164 0006 C046     		.align	2
 165              	.L17:
 166 0008 23000F40 		.word	1074724899
 167              		.cfi_endproc
 168              	.LFE8:
 169              		.size	PWM_venstre_WriteCompare, .-PWM_venstre_WriteCompare
 170              		.section	.text.PWM_venstre_SetInterruptMode,"ax",%progbits
 171              		.align	2
 172              		.global	PWM_venstre_SetInterruptMode
 173              		.code	16
 174              		.thumb_func
 175              		.type	PWM_venstre_SetInterruptMode, %function
 176              	PWM_venstre_SetInterruptMode:
 177              	.LFB9:
 533:.\Generated_Source\PSoC4/PWM_venstre.c **** 
 534:.\Generated_Source\PSoC4/PWM_venstre.c **** 
 535:.\Generated_Source\PSoC4/PWM_venstre.c **** #else
 536:.\Generated_Source\PSoC4/PWM_venstre.c **** 
 537:.\Generated_Source\PSoC4/PWM_venstre.c **** 
 538:.\Generated_Source\PSoC4/PWM_venstre.c ****     /*******************************************************************************
 539:.\Generated_Source\PSoC4/PWM_venstre.c ****     * Function Name: PWM_venstre_WriteCompare1
 540:.\Generated_Source\PSoC4/PWM_venstre.c ****     ********************************************************************************
 541:.\Generated_Source\PSoC4/PWM_venstre.c ****     *
 542:.\Generated_Source\PSoC4/PWM_venstre.c ****     * Summary:
 543:.\Generated_Source\PSoC4/PWM_venstre.c ****     *  This funtion is used to change the compare1 value.  The compare output will
 544:.\Generated_Source\PSoC4/PWM_venstre.c ****     *  reflect the new value on the next UDB clock.  The compare output will be
 545:.\Generated_Source\PSoC4/PWM_venstre.c ****     *  driven high when the present counter value is less than or less than or
 546:.\Generated_Source\PSoC4/PWM_venstre.c ****     *  equal to the compare register, depending on the mode.
 547:.\Generated_Source\PSoC4/PWM_venstre.c ****     *
 548:.\Generated_Source\PSoC4/PWM_venstre.c ****     * Parameters:
 549:.\Generated_Source\PSoC4/PWM_venstre.c ****     *  compare:  New compare value.
 550:.\Generated_Source\PSoC4/PWM_venstre.c ****     *
 551:.\Generated_Source\PSoC4/PWM_venstre.c ****     * Return:
 552:.\Generated_Source\PSoC4/PWM_venstre.c ****     *  None
 553:.\Generated_Source\PSoC4/PWM_venstre.c ****     *
 554:.\Generated_Source\PSoC4/PWM_venstre.c ****     *******************************************************************************/
 555:.\Generated_Source\PSoC4/PWM_venstre.c ****     void PWM_venstre_WriteCompare1(uint8 compare) \
 556:.\Generated_Source\PSoC4/PWM_venstre.c ****                                         
 557:.\Generated_Source\PSoC4/PWM_venstre.c ****     {
 558:.\Generated_Source\PSoC4/PWM_venstre.c ****         #if(PWM_venstre_UsingFixedFunction)
 559:.\Generated_Source\PSoC4/PWM_venstre.c ****             CY_SET_REG16(PWM_venstre_COMPARE1_LSB_PTR, (uint16)compare);
 560:.\Generated_Source\PSoC4/PWM_venstre.c ****         #else
 561:.\Generated_Source\PSoC4/PWM_venstre.c ****             CY_SET_REG8(PWM_venstre_COMPARE1_LSB_PTR, compare);
 562:.\Generated_Source\PSoC4/PWM_venstre.c ****         #endif /* (PWM_venstre_UsingFixedFunction) */
 563:.\Generated_Source\PSoC4/PWM_venstre.c ****     }
 564:.\Generated_Source\PSoC4/PWM_venstre.c **** 
ARM GAS  C:\Users\PERNIL~1\AppData\Local\Temp\ccqDjgpn.s 			page 14


 565:.\Generated_Source\PSoC4/PWM_venstre.c **** 
 566:.\Generated_Source\PSoC4/PWM_venstre.c ****     /*******************************************************************************
 567:.\Generated_Source\PSoC4/PWM_venstre.c ****     * Function Name: PWM_venstre_WriteCompare2
 568:.\Generated_Source\PSoC4/PWM_venstre.c ****     ********************************************************************************
 569:.\Generated_Source\PSoC4/PWM_venstre.c ****     *
 570:.\Generated_Source\PSoC4/PWM_venstre.c ****     * Summary:
 571:.\Generated_Source\PSoC4/PWM_venstre.c ****     *  This funtion is used to change the compare value, for compare1 output.
 572:.\Generated_Source\PSoC4/PWM_venstre.c ****     *  The compare output will reflect the new value on the next UDB clock.
 573:.\Generated_Source\PSoC4/PWM_venstre.c ****     *  The compare output will be driven high when the present counter value is
 574:.\Generated_Source\PSoC4/PWM_venstre.c ****     *  less than or less than or equal to the compare register, depending on the
 575:.\Generated_Source\PSoC4/PWM_venstre.c ****     *  mode.
 576:.\Generated_Source\PSoC4/PWM_venstre.c ****     *
 577:.\Generated_Source\PSoC4/PWM_venstre.c ****     * Parameters:
 578:.\Generated_Source\PSoC4/PWM_venstre.c ****     *  compare:  New compare value.
 579:.\Generated_Source\PSoC4/PWM_venstre.c ****     *
 580:.\Generated_Source\PSoC4/PWM_venstre.c ****     * Return:
 581:.\Generated_Source\PSoC4/PWM_venstre.c ****     *  None
 582:.\Generated_Source\PSoC4/PWM_venstre.c ****     *
 583:.\Generated_Source\PSoC4/PWM_venstre.c ****     *******************************************************************************/
 584:.\Generated_Source\PSoC4/PWM_venstre.c ****     void PWM_venstre_WriteCompare2(uint8 compare) \
 585:.\Generated_Source\PSoC4/PWM_venstre.c ****                                         
 586:.\Generated_Source\PSoC4/PWM_venstre.c ****     {
 587:.\Generated_Source\PSoC4/PWM_venstre.c ****         #if(PWM_venstre_UsingFixedFunction)
 588:.\Generated_Source\PSoC4/PWM_venstre.c ****             CY_SET_REG16(PWM_venstre_COMPARE2_LSB_PTR, compare);
 589:.\Generated_Source\PSoC4/PWM_venstre.c ****         #else
 590:.\Generated_Source\PSoC4/PWM_venstre.c ****             CY_SET_REG8(PWM_venstre_COMPARE2_LSB_PTR, compare);
 591:.\Generated_Source\PSoC4/PWM_venstre.c ****         #endif /* (PWM_venstre_UsingFixedFunction) */
 592:.\Generated_Source\PSoC4/PWM_venstre.c ****     }
 593:.\Generated_Source\PSoC4/PWM_venstre.c **** #endif /* UseOneCompareMode */
 594:.\Generated_Source\PSoC4/PWM_venstre.c **** 
 595:.\Generated_Source\PSoC4/PWM_venstre.c **** #if (PWM_venstre_DeadBandUsed)
 596:.\Generated_Source\PSoC4/PWM_venstre.c **** 
 597:.\Generated_Source\PSoC4/PWM_venstre.c **** 
 598:.\Generated_Source\PSoC4/PWM_venstre.c ****     /*******************************************************************************
 599:.\Generated_Source\PSoC4/PWM_venstre.c ****     * Function Name: PWM_venstre_WriteDeadTime
 600:.\Generated_Source\PSoC4/PWM_venstre.c ****     ********************************************************************************
 601:.\Generated_Source\PSoC4/PWM_venstre.c ****     *
 602:.\Generated_Source\PSoC4/PWM_venstre.c ****     * Summary:
 603:.\Generated_Source\PSoC4/PWM_venstre.c ****     *  This function writes the dead-band counts to the corresponding register
 604:.\Generated_Source\PSoC4/PWM_venstre.c ****     *
 605:.\Generated_Source\PSoC4/PWM_venstre.c ****     * Parameters:
 606:.\Generated_Source\PSoC4/PWM_venstre.c ****     *  deadtime:  Number of counts for dead time
 607:.\Generated_Source\PSoC4/PWM_venstre.c ****     *
 608:.\Generated_Source\PSoC4/PWM_venstre.c ****     * Return:
 609:.\Generated_Source\PSoC4/PWM_venstre.c ****     *  None
 610:.\Generated_Source\PSoC4/PWM_venstre.c ****     *
 611:.\Generated_Source\PSoC4/PWM_venstre.c ****     *******************************************************************************/
 612:.\Generated_Source\PSoC4/PWM_venstre.c ****     void PWM_venstre_WriteDeadTime(uint8 deadtime) 
 613:.\Generated_Source\PSoC4/PWM_venstre.c ****     {
 614:.\Generated_Source\PSoC4/PWM_venstre.c ****         /* If using the Dead Band 1-255 mode then just write the register */
 615:.\Generated_Source\PSoC4/PWM_venstre.c ****         #if(!PWM_venstre_DeadBand2_4)
 616:.\Generated_Source\PSoC4/PWM_venstre.c ****             CY_SET_REG8(PWM_venstre_DEADBAND_COUNT_PTR, deadtime);
 617:.\Generated_Source\PSoC4/PWM_venstre.c ****         #else
 618:.\Generated_Source\PSoC4/PWM_venstre.c ****             /* Otherwise the data has to be masked and offset */
 619:.\Generated_Source\PSoC4/PWM_venstre.c ****             /* Clear existing data */
 620:.\Generated_Source\PSoC4/PWM_venstre.c ****             PWM_venstre_DEADBAND_COUNT &= ((uint8)(~PWM_venstre_DEADBAND_COUNT_MASK));
 621:.\Generated_Source\PSoC4/PWM_venstre.c **** 
ARM GAS  C:\Users\PERNIL~1\AppData\Local\Temp\ccqDjgpn.s 			page 15


 622:.\Generated_Source\PSoC4/PWM_venstre.c ****             /* Set new dead time */
 623:.\Generated_Source\PSoC4/PWM_venstre.c ****             #if(PWM_venstre_DEADBAND_COUNT_SHIFT)
 624:.\Generated_Source\PSoC4/PWM_venstre.c ****                 PWM_venstre_DEADBAND_COUNT |= ((uint8)((uint8)deadtime << PWM_venstre_DEADBAND_COUN
 625:.\Generated_Source\PSoC4/PWM_venstre.c ****                                                     PWM_venstre_DEADBAND_COUNT_MASK;
 626:.\Generated_Source\PSoC4/PWM_venstre.c ****             #else
 627:.\Generated_Source\PSoC4/PWM_venstre.c ****                 PWM_venstre_DEADBAND_COUNT |= deadtime & PWM_venstre_DEADBAND_COUNT_MASK;
 628:.\Generated_Source\PSoC4/PWM_venstre.c ****             #endif /* (PWM_venstre_DEADBAND_COUNT_SHIFT) */
 629:.\Generated_Source\PSoC4/PWM_venstre.c **** 
 630:.\Generated_Source\PSoC4/PWM_venstre.c ****         #endif /* (!PWM_venstre_DeadBand2_4) */
 631:.\Generated_Source\PSoC4/PWM_venstre.c ****     }
 632:.\Generated_Source\PSoC4/PWM_venstre.c **** 
 633:.\Generated_Source\PSoC4/PWM_venstre.c **** 
 634:.\Generated_Source\PSoC4/PWM_venstre.c ****     /*******************************************************************************
 635:.\Generated_Source\PSoC4/PWM_venstre.c ****     * Function Name: PWM_venstre_ReadDeadTime
 636:.\Generated_Source\PSoC4/PWM_venstre.c ****     ********************************************************************************
 637:.\Generated_Source\PSoC4/PWM_venstre.c ****     *
 638:.\Generated_Source\PSoC4/PWM_venstre.c ****     * Summary:
 639:.\Generated_Source\PSoC4/PWM_venstre.c ****     *  This function reads the dead-band counts from the corresponding register
 640:.\Generated_Source\PSoC4/PWM_venstre.c ****     *
 641:.\Generated_Source\PSoC4/PWM_venstre.c ****     * Parameters:
 642:.\Generated_Source\PSoC4/PWM_venstre.c ****     *  None
 643:.\Generated_Source\PSoC4/PWM_venstre.c ****     *
 644:.\Generated_Source\PSoC4/PWM_venstre.c ****     * Return:
 645:.\Generated_Source\PSoC4/PWM_venstre.c ****     *  Dead Band Counts
 646:.\Generated_Source\PSoC4/PWM_venstre.c ****     *
 647:.\Generated_Source\PSoC4/PWM_venstre.c ****     *******************************************************************************/
 648:.\Generated_Source\PSoC4/PWM_venstre.c ****     uint8 PWM_venstre_ReadDeadTime(void) 
 649:.\Generated_Source\PSoC4/PWM_venstre.c ****     {
 650:.\Generated_Source\PSoC4/PWM_venstre.c ****         /* If using the Dead Band 1-255 mode then just read the register */
 651:.\Generated_Source\PSoC4/PWM_venstre.c ****         #if(!PWM_venstre_DeadBand2_4)
 652:.\Generated_Source\PSoC4/PWM_venstre.c ****             return (CY_GET_REG8(PWM_venstre_DEADBAND_COUNT_PTR));
 653:.\Generated_Source\PSoC4/PWM_venstre.c ****         #else
 654:.\Generated_Source\PSoC4/PWM_venstre.c **** 
 655:.\Generated_Source\PSoC4/PWM_venstre.c ****             /* Otherwise the data has to be masked and offset */
 656:.\Generated_Source\PSoC4/PWM_venstre.c ****             #if(PWM_venstre_DEADBAND_COUNT_SHIFT)
 657:.\Generated_Source\PSoC4/PWM_venstre.c ****                 return ((uint8)(((uint8)(PWM_venstre_DEADBAND_COUNT & PWM_venstre_DEADBAND_COUNT_MA
 658:.\Generated_Source\PSoC4/PWM_venstre.c ****                                                                            PWM_venstre_DEADBAND_COU
 659:.\Generated_Source\PSoC4/PWM_venstre.c ****             #else
 660:.\Generated_Source\PSoC4/PWM_venstre.c ****                 return (PWM_venstre_DEADBAND_COUNT & PWM_venstre_DEADBAND_COUNT_MASK);
 661:.\Generated_Source\PSoC4/PWM_venstre.c ****             #endif /* (PWM_venstre_DEADBAND_COUNT_SHIFT) */
 662:.\Generated_Source\PSoC4/PWM_venstre.c ****         #endif /* (!PWM_venstre_DeadBand2_4) */
 663:.\Generated_Source\PSoC4/PWM_venstre.c ****     }
 664:.\Generated_Source\PSoC4/PWM_venstre.c **** #endif /* DeadBandUsed */
 665:.\Generated_Source\PSoC4/PWM_venstre.c **** 
 666:.\Generated_Source\PSoC4/PWM_venstre.c **** #if (PWM_venstre_UseStatus || PWM_venstre_UsingFixedFunction)
 667:.\Generated_Source\PSoC4/PWM_venstre.c **** 
 668:.\Generated_Source\PSoC4/PWM_venstre.c **** 
 669:.\Generated_Source\PSoC4/PWM_venstre.c ****     /*******************************************************************************
 670:.\Generated_Source\PSoC4/PWM_venstre.c ****     * Function Name: PWM_venstre_SetInterruptMode
 671:.\Generated_Source\PSoC4/PWM_venstre.c ****     ********************************************************************************
 672:.\Generated_Source\PSoC4/PWM_venstre.c ****     *
 673:.\Generated_Source\PSoC4/PWM_venstre.c ****     * Summary:
 674:.\Generated_Source\PSoC4/PWM_venstre.c ****     *  This function configures the interrupts mask control of theinterrupt
 675:.\Generated_Source\PSoC4/PWM_venstre.c ****     *  source status register.
 676:.\Generated_Source\PSoC4/PWM_venstre.c ****     *
 677:.\Generated_Source\PSoC4/PWM_venstre.c ****     * Parameters:
 678:.\Generated_Source\PSoC4/PWM_venstre.c ****     *  uint8 interruptMode: Bit field containing the interrupt sources enabled
ARM GAS  C:\Users\PERNIL~1\AppData\Local\Temp\ccqDjgpn.s 			page 16


 679:.\Generated_Source\PSoC4/PWM_venstre.c ****     *
 680:.\Generated_Source\PSoC4/PWM_venstre.c ****     * Return:
 681:.\Generated_Source\PSoC4/PWM_venstre.c ****     *  None
 682:.\Generated_Source\PSoC4/PWM_venstre.c ****     *
 683:.\Generated_Source\PSoC4/PWM_venstre.c ****     *******************************************************************************/
 684:.\Generated_Source\PSoC4/PWM_venstre.c ****     void PWM_venstre_SetInterruptMode(uint8 interruptMode) 
 685:.\Generated_Source\PSoC4/PWM_venstre.c ****     {
 178              		.loc 1 685 0
 179              		.cfi_startproc
 180              	.LVL3:
 686:.\Generated_Source\PSoC4/PWM_venstre.c ****         CY_SET_REG8(PWM_venstre_STATUS_MASK_PTR, interruptMode);
 181              		.loc 1 686 0
 182 0000 014B     		ldr	r3, .L20
 183 0002 1870     		strb	r0, [r3]
 687:.\Generated_Source\PSoC4/PWM_venstre.c ****     }
 184              		.loc 1 687 0
 185              		@ sp needed
 186 0004 7047     		bx	lr
 187              	.L21:
 188 0006 C046     		.align	2
 189              	.L20:
 190 0008 83000F40 		.word	1074724995
 191              		.cfi_endproc
 192              	.LFE9:
 193              		.size	PWM_venstre_SetInterruptMode, .-PWM_venstre_SetInterruptMode
 194              		.section	.text.PWM_venstre_ReadStatusRegister,"ax",%progbits
 195              		.align	2
 196              		.global	PWM_venstre_ReadStatusRegister
 197              		.code	16
 198              		.thumb_func
 199              		.type	PWM_venstre_ReadStatusRegister, %function
 200              	PWM_venstre_ReadStatusRegister:
 201              	.LFB10:
 688:.\Generated_Source\PSoC4/PWM_venstre.c **** 
 689:.\Generated_Source\PSoC4/PWM_venstre.c **** 
 690:.\Generated_Source\PSoC4/PWM_venstre.c ****     /*******************************************************************************
 691:.\Generated_Source\PSoC4/PWM_venstre.c ****     * Function Name: PWM_venstre_ReadStatusRegister
 692:.\Generated_Source\PSoC4/PWM_venstre.c ****     ********************************************************************************
 693:.\Generated_Source\PSoC4/PWM_venstre.c ****     *
 694:.\Generated_Source\PSoC4/PWM_venstre.c ****     * Summary:
 695:.\Generated_Source\PSoC4/PWM_venstre.c ****     *  This function returns the current state of the status register.
 696:.\Generated_Source\PSoC4/PWM_venstre.c ****     *
 697:.\Generated_Source\PSoC4/PWM_venstre.c ****     * Parameters:
 698:.\Generated_Source\PSoC4/PWM_venstre.c ****     *  None
 699:.\Generated_Source\PSoC4/PWM_venstre.c ****     *
 700:.\Generated_Source\PSoC4/PWM_venstre.c ****     * Return:
 701:.\Generated_Source\PSoC4/PWM_venstre.c ****     *  uint8 : Current status register value. The status register bits are:
 702:.\Generated_Source\PSoC4/PWM_venstre.c ****     *  [7:6] : Unused(0)
 703:.\Generated_Source\PSoC4/PWM_venstre.c ****     *  [5]   : Kill event output
 704:.\Generated_Source\PSoC4/PWM_venstre.c ****     *  [4]   : FIFO not empty
 705:.\Generated_Source\PSoC4/PWM_venstre.c ****     *  [3]   : FIFO full
 706:.\Generated_Source\PSoC4/PWM_venstre.c ****     *  [2]   : Terminal count
 707:.\Generated_Source\PSoC4/PWM_venstre.c ****     *  [1]   : Compare output 2
 708:.\Generated_Source\PSoC4/PWM_venstre.c ****     *  [0]   : Compare output 1
 709:.\Generated_Source\PSoC4/PWM_venstre.c ****     *
 710:.\Generated_Source\PSoC4/PWM_venstre.c ****     *******************************************************************************/
 711:.\Generated_Source\PSoC4/PWM_venstre.c ****     uint8 PWM_venstre_ReadStatusRegister(void) 
ARM GAS  C:\Users\PERNIL~1\AppData\Local\Temp\ccqDjgpn.s 			page 17


 712:.\Generated_Source\PSoC4/PWM_venstre.c ****     {
 202              		.loc 1 712 0
 203              		.cfi_startproc
 713:.\Generated_Source\PSoC4/PWM_venstre.c ****         return (CY_GET_REG8(PWM_venstre_STATUS_PTR));
 204              		.loc 1 713 0
 205 0000 014B     		ldr	r3, .L23
 206 0002 1878     		ldrb	r0, [r3]
 207 0004 C0B2     		uxtb	r0, r0
 714:.\Generated_Source\PSoC4/PWM_venstre.c ****     }
 208              		.loc 1 714 0
 209              		@ sp needed
 210 0006 7047     		bx	lr
 211              	.L24:
 212              		.align	2
 213              	.L23:
 214 0008 63000F40 		.word	1074724963
 215              		.cfi_endproc
 216              	.LFE10:
 217              		.size	PWM_venstre_ReadStatusRegister, .-PWM_venstre_ReadStatusRegister
 218              		.section	.text.PWM_venstre_ReadControlRegister,"ax",%progbits
 219              		.align	2
 220              		.global	PWM_venstre_ReadControlRegister
 221              		.code	16
 222              		.thumb_func
 223              		.type	PWM_venstre_ReadControlRegister, %function
 224              	PWM_venstre_ReadControlRegister:
 225              	.LFB11:
 715:.\Generated_Source\PSoC4/PWM_venstre.c **** 
 716:.\Generated_Source\PSoC4/PWM_venstre.c **** #endif /* (PWM_venstre_UseStatus || PWM_venstre_UsingFixedFunction) */
 717:.\Generated_Source\PSoC4/PWM_venstre.c **** 
 718:.\Generated_Source\PSoC4/PWM_venstre.c **** 
 719:.\Generated_Source\PSoC4/PWM_venstre.c **** #if (PWM_venstre_UseControl)
 720:.\Generated_Source\PSoC4/PWM_venstre.c **** 
 721:.\Generated_Source\PSoC4/PWM_venstre.c **** 
 722:.\Generated_Source\PSoC4/PWM_venstre.c ****     /*******************************************************************************
 723:.\Generated_Source\PSoC4/PWM_venstre.c ****     * Function Name: PWM_venstre_ReadControlRegister
 724:.\Generated_Source\PSoC4/PWM_venstre.c ****     ********************************************************************************
 725:.\Generated_Source\PSoC4/PWM_venstre.c ****     *
 726:.\Generated_Source\PSoC4/PWM_venstre.c ****     * Summary:
 727:.\Generated_Source\PSoC4/PWM_venstre.c ****     *  Returns the current state of the control register. This API is available
 728:.\Generated_Source\PSoC4/PWM_venstre.c ****     *  only if the control register is not removed.
 729:.\Generated_Source\PSoC4/PWM_venstre.c ****     *
 730:.\Generated_Source\PSoC4/PWM_venstre.c ****     * Parameters:
 731:.\Generated_Source\PSoC4/PWM_venstre.c ****     *  None
 732:.\Generated_Source\PSoC4/PWM_venstre.c ****     *
 733:.\Generated_Source\PSoC4/PWM_venstre.c ****     * Return:
 734:.\Generated_Source\PSoC4/PWM_venstre.c ****     *  uint8 : Current control register value
 735:.\Generated_Source\PSoC4/PWM_venstre.c ****     *
 736:.\Generated_Source\PSoC4/PWM_venstre.c ****     *******************************************************************************/
 737:.\Generated_Source\PSoC4/PWM_venstre.c ****     uint8 PWM_venstre_ReadControlRegister(void) 
 738:.\Generated_Source\PSoC4/PWM_venstre.c ****     {
 226              		.loc 1 738 0
 227              		.cfi_startproc
 739:.\Generated_Source\PSoC4/PWM_venstre.c ****         uint8 result;
 740:.\Generated_Source\PSoC4/PWM_venstre.c **** 
 741:.\Generated_Source\PSoC4/PWM_venstre.c ****         result = CY_GET_REG8(PWM_venstre_CONTROL_PTR);
 228              		.loc 1 741 0
ARM GAS  C:\Users\PERNIL~1\AppData\Local\Temp\ccqDjgpn.s 			page 18


 229 0000 014B     		ldr	r3, .L26
 230 0002 1878     		ldrb	r0, [r3]
 231 0004 C0B2     		uxtb	r0, r0
 232              	.LVL4:
 742:.\Generated_Source\PSoC4/PWM_venstre.c ****         return (result);
 743:.\Generated_Source\PSoC4/PWM_venstre.c ****     }
 233              		.loc 1 743 0
 234              		@ sp needed
 235 0006 7047     		bx	lr
 236              	.L27:
 237              		.align	2
 238              	.L26:
 239 0008 73000F40 		.word	1074724979
 240              		.cfi_endproc
 241              	.LFE11:
 242              		.size	PWM_venstre_ReadControlRegister, .-PWM_venstre_ReadControlRegister
 243              		.section	.text.PWM_venstre_WriteControlRegister,"ax",%progbits
 244              		.align	2
 245              		.global	PWM_venstre_WriteControlRegister
 246              		.code	16
 247              		.thumb_func
 248              		.type	PWM_venstre_WriteControlRegister, %function
 249              	PWM_venstre_WriteControlRegister:
 250              	.LFB12:
 744:.\Generated_Source\PSoC4/PWM_venstre.c **** 
 745:.\Generated_Source\PSoC4/PWM_venstre.c **** 
 746:.\Generated_Source\PSoC4/PWM_venstre.c ****     /*******************************************************************************
 747:.\Generated_Source\PSoC4/PWM_venstre.c ****     * Function Name: PWM_venstre_WriteControlRegister
 748:.\Generated_Source\PSoC4/PWM_venstre.c ****     ********************************************************************************
 749:.\Generated_Source\PSoC4/PWM_venstre.c ****     *
 750:.\Generated_Source\PSoC4/PWM_venstre.c ****     * Summary:
 751:.\Generated_Source\PSoC4/PWM_venstre.c ****     *  Sets the bit field of the control register. This API is available only if
 752:.\Generated_Source\PSoC4/PWM_venstre.c ****     *  the control register is not removed.
 753:.\Generated_Source\PSoC4/PWM_venstre.c ****     *
 754:.\Generated_Source\PSoC4/PWM_venstre.c ****     * Parameters:
 755:.\Generated_Source\PSoC4/PWM_venstre.c ****     *  uint8 control: Control register bit field, The status register bits are:
 756:.\Generated_Source\PSoC4/PWM_venstre.c ****     *  [7]   : PWM Enable
 757:.\Generated_Source\PSoC4/PWM_venstre.c ****     *  [6]   : Reset
 758:.\Generated_Source\PSoC4/PWM_venstre.c ****     *  [5:3] : Compare Mode2
 759:.\Generated_Source\PSoC4/PWM_venstre.c ****     *  [2:0] : Compare Mode2
 760:.\Generated_Source\PSoC4/PWM_venstre.c ****     *
 761:.\Generated_Source\PSoC4/PWM_venstre.c ****     * Return:
 762:.\Generated_Source\PSoC4/PWM_venstre.c ****     *  None
 763:.\Generated_Source\PSoC4/PWM_venstre.c ****     *
 764:.\Generated_Source\PSoC4/PWM_venstre.c ****     *******************************************************************************/
 765:.\Generated_Source\PSoC4/PWM_venstre.c ****     void PWM_venstre_WriteControlRegister(uint8 control) 
 766:.\Generated_Source\PSoC4/PWM_venstre.c ****     {
 251              		.loc 1 766 0
 252              		.cfi_startproc
 253              	.LVL5:
 767:.\Generated_Source\PSoC4/PWM_venstre.c ****         CY_SET_REG8(PWM_venstre_CONTROL_PTR, control);
 254              		.loc 1 767 0
 255 0000 014B     		ldr	r3, .L29
 256 0002 1870     		strb	r0, [r3]
 768:.\Generated_Source\PSoC4/PWM_venstre.c ****     }
 257              		.loc 1 768 0
 258              		@ sp needed
ARM GAS  C:\Users\PERNIL~1\AppData\Local\Temp\ccqDjgpn.s 			page 19


 259 0004 7047     		bx	lr
 260              	.L30:
 261 0006 C046     		.align	2
 262              	.L29:
 263 0008 73000F40 		.word	1074724979
 264              		.cfi_endproc
 265              	.LFE12:
 266              		.size	PWM_venstre_WriteControlRegister, .-PWM_venstre_WriteControlRegister
 267              		.section	.text.PWM_venstre_ReadCapture,"ax",%progbits
 268              		.align	2
 269              		.global	PWM_venstre_ReadCapture
 270              		.code	16
 271              		.thumb_func
 272              		.type	PWM_venstre_ReadCapture, %function
 273              	PWM_venstre_ReadCapture:
 274              	.LFB13:
 769:.\Generated_Source\PSoC4/PWM_venstre.c **** 
 770:.\Generated_Source\PSoC4/PWM_venstre.c **** #endif /* (PWM_venstre_UseControl) */
 771:.\Generated_Source\PSoC4/PWM_venstre.c **** 
 772:.\Generated_Source\PSoC4/PWM_venstre.c **** 
 773:.\Generated_Source\PSoC4/PWM_venstre.c **** #if (!PWM_venstre_UsingFixedFunction)
 774:.\Generated_Source\PSoC4/PWM_venstre.c **** 
 775:.\Generated_Source\PSoC4/PWM_venstre.c **** 
 776:.\Generated_Source\PSoC4/PWM_venstre.c ****     /*******************************************************************************
 777:.\Generated_Source\PSoC4/PWM_venstre.c ****     * Function Name: PWM_venstre_ReadCapture
 778:.\Generated_Source\PSoC4/PWM_venstre.c ****     ********************************************************************************
 779:.\Generated_Source\PSoC4/PWM_venstre.c ****     *
 780:.\Generated_Source\PSoC4/PWM_venstre.c ****     * Summary:
 781:.\Generated_Source\PSoC4/PWM_venstre.c ****     *  Reads the capture value from the capture FIFO.
 782:.\Generated_Source\PSoC4/PWM_venstre.c ****     *
 783:.\Generated_Source\PSoC4/PWM_venstre.c ****     * Parameters:
 784:.\Generated_Source\PSoC4/PWM_venstre.c ****     *  None
 785:.\Generated_Source\PSoC4/PWM_venstre.c ****     *
 786:.\Generated_Source\PSoC4/PWM_venstre.c ****     * Return:
 787:.\Generated_Source\PSoC4/PWM_venstre.c ****     *  uint8/uint16: The current capture value
 788:.\Generated_Source\PSoC4/PWM_venstre.c ****     *
 789:.\Generated_Source\PSoC4/PWM_venstre.c ****     *******************************************************************************/
 790:.\Generated_Source\PSoC4/PWM_venstre.c ****     uint8 PWM_venstre_ReadCapture(void) 
 791:.\Generated_Source\PSoC4/PWM_venstre.c ****     {
 275              		.loc 1 791 0
 276              		.cfi_startproc
 792:.\Generated_Source\PSoC4/PWM_venstre.c ****         return (CY_GET_REG8(PWM_venstre_CAPTURE_LSB_PTR));
 277              		.loc 1 792 0
 278 0000 014B     		ldr	r3, .L32
 279 0002 1878     		ldrb	r0, [r3]
 280 0004 C0B2     		uxtb	r0, r0
 793:.\Generated_Source\PSoC4/PWM_venstre.c ****     }
 281              		.loc 1 793 0
 282              		@ sp needed
 283 0006 7047     		bx	lr
 284              	.L33:
 285              		.align	2
 286              	.L32:
 287 0008 53000F40 		.word	1074724947
 288              		.cfi_endproc
 289              	.LFE13:
 290              		.size	PWM_venstre_ReadCapture, .-PWM_venstre_ReadCapture
ARM GAS  C:\Users\PERNIL~1\AppData\Local\Temp\ccqDjgpn.s 			page 20


 291              		.section	.text.PWM_venstre_ClearFIFO,"ax",%progbits
 292              		.align	2
 293              		.global	PWM_venstre_ClearFIFO
 294              		.code	16
 295              		.thumb_func
 296              		.type	PWM_venstre_ClearFIFO, %function
 297              	PWM_venstre_ClearFIFO:
 298              	.LFB6:
 454:.\Generated_Source\PSoC4/PWM_venstre.c ****             while(0u != (PWM_venstre_ReadStatusRegister() & PWM_venstre_STATUS_FIFONEMPTY))
 299              		.loc 1 454 0
 300              		.cfi_startproc
 301 0000 08B5     		push	{r3, lr}
 302              		.cfi_def_cfa_offset 8
 303              		.cfi_offset 3, -8
 304              		.cfi_offset 14, -4
 455:.\Generated_Source\PSoC4/PWM_venstre.c ****             {
 305              		.loc 1 455 0
 306 0002 01E0     		b	.L35
 307              	.L36:
 457:.\Generated_Source\PSoC4/PWM_venstre.c ****             }
 308              		.loc 1 457 0
 309 0004 FFF7FEFF 		bl	PWM_venstre_ReadCapture
 310              	.LVL6:
 311              	.L35:
 455:.\Generated_Source\PSoC4/PWM_venstre.c ****             {
 312              		.loc 1 455 0
 313 0008 FFF7FEFF 		bl	PWM_venstre_ReadStatusRegister
 314              	.LVL7:
 315 000c C306     		lsl	r3, r0, #27
 316 000e F9D4     		bmi	.L36
 459:.\Generated_Source\PSoC4/PWM_venstre.c **** 
 317              		.loc 1 459 0
 318              		@ sp needed
 319 0010 08BD     		pop	{r3, pc}
 320              		.cfi_endproc
 321              	.LFE6:
 322              		.size	PWM_venstre_ClearFIFO, .-PWM_venstre_ClearFIFO
 323 0012 C046     		.section	.text.PWM_venstre_Init,"ax",%progbits
 324              		.align	2
 325              		.global	PWM_venstre_Init
 326              		.code	16
 327              		.thumb_func
 328              		.type	PWM_venstre_Init, %function
 329              	PWM_venstre_Init:
 330              	.LFB1:
  85:.\Generated_Source\PSoC4/PWM_venstre.c ****     #if (PWM_venstre_UsingFixedFunction || PWM_venstre_UseControl)
 331              		.loc 1 85 0
 332              		.cfi_startproc
 333 0000 10B5     		push	{r4, lr}
 334              		.cfi_def_cfa_offset 8
 335              		.cfi_offset 4, -8
 336              		.cfi_offset 14, -4
 117:.\Generated_Source\PSoC4/PWM_venstre.c ****                 ((uint8)(~PWM_venstre_CTRL_CMPMODE1_MASK));
 337              		.loc 1 117 0
 338 0002 1149     		ldr	r1, .L38
 339 0004 0B78     		ldrb	r3, [r1]
 340 0006 3F22     		mov	r2, #63
ARM GAS  C:\Users\PERNIL~1\AppData\Local\Temp\ccqDjgpn.s 			page 21


 341 0008 9343     		bic	r3, r2
 342              	.LVL8:
 119:.\Generated_Source\PSoC4/PWM_venstre.c ****                                    PWM_venstre_DEFAULT_COMPARE1_MODE;
 343              		.loc 1 119 0
 344 000a 363A     		sub	r2, r2, #54
 345 000c 1343     		orr	r3, r2
 346              	.LVL9:
 347 000e 0B70     		strb	r3, [r1]
 126:.\Generated_Source\PSoC4/PWM_venstre.c ****         #else /* (PWM_venstre_Resolution == 16)*/
 348              		.loc 1 126 0
 349 0010 0E4C     		ldr	r4, .L38+4
 350 0012 2278     		ldrb	r2, [r4]
 351 0014 0123     		mov	r3, #1
 352 0016 1343     		orr	r3, r2
 353 0018 2370     		strb	r3, [r4]
 133:.\Generated_Source\PSoC4/PWM_venstre.c ****     #endif /* (!PWM_venstre_UsingFixedFunction) */
 354              		.loc 1 133 0
 355 001a FF20     		mov	r0, #255
 356 001c FFF7FEFF 		bl	PWM_venstre_WriteCounter
 357              	.LVL10:
 136:.\Generated_Source\PSoC4/PWM_venstre.c **** 
 358              		.loc 1 136 0
 359 0020 FF20     		mov	r0, #255
 360 0022 FFF7FEFF 		bl	PWM_venstre_WritePeriod
 361              	.LVL11:
 139:.\Generated_Source\PSoC4/PWM_venstre.c ****         #else
 362              		.loc 1 139 0
 363 0026 7F20     		mov	r0, #127
 364 0028 FFF7FEFF 		bl	PWM_venstre_WriteCompare
 365              	.LVL12:
 154:.\Generated_Source\PSoC4/PWM_venstre.c ****     #endif /* (PWM_venstre_UseStatus || PWM_venstre_UsingFixedFunction) */
 366              		.loc 1 154 0
 367 002c 0020     		mov	r0, #0
 368 002e FFF7FEFF 		bl	PWM_venstre_SetInterruptMode
 369              	.LVL13:
 167:.\Generated_Source\PSoC4/PWM_venstre.c ****             /* Use the interrupt output of the status register for IRQ output */
 370              		.loc 1 167 0
 371 0032 FFF7FEFF 		bl	CyEnterCriticalSection
 372              	.LVL14:
 169:.\Generated_Source\PSoC4/PWM_venstre.c **** 
 373              		.loc 1 169 0
 374 0036 2278     		ldrb	r2, [r4]
 375 0038 1023     		mov	r3, #16
 376 003a 1343     		orr	r3, r2
 377 003c 2370     		strb	r3, [r4]
 172:.\Generated_Source\PSoC4/PWM_venstre.c **** 
 378              		.loc 1 172 0
 379 003e FFF7FEFF 		bl	CyExitCriticalSection
 380              	.LVL15:
 176:.\Generated_Source\PSoC4/PWM_venstre.c ****         #endif /* (PWM_venstre_UseStatus) */
 381              		.loc 1 176 0
 382 0042 FFF7FEFF 		bl	PWM_venstre_ClearFIFO
 383              	.LVL16:
 179:.\Generated_Source\PSoC4/PWM_venstre.c **** 
 384              		.loc 1 179 0
 385              		@ sp needed
 386 0046 10BD     		pop	{r4, pc}
ARM GAS  C:\Users\PERNIL~1\AppData\Local\Temp\ccqDjgpn.s 			page 22


 387              	.L39:
 388              		.align	2
 389              	.L38:
 390 0048 73000F40 		.word	1074724979
 391 004c 93000F40 		.word	1074725011
 392              		.cfi_endproc
 393              	.LFE1:
 394              		.size	PWM_venstre_Init, .-PWM_venstre_Init
 395              		.section	.text.PWM_venstre_Start,"ax",%progbits
 396              		.align	2
 397              		.global	PWM_venstre_Start
 398              		.code	16
 399              		.thumb_func
 400              		.type	PWM_venstre_Start, %function
 401              	PWM_venstre_Start:
 402              	.LFB0:
  56:.\Generated_Source\PSoC4/PWM_venstre.c ****     /* If not Initialized then initialize all required hardware and software */
 403              		.loc 1 56 0
 404              		.cfi_startproc
 405 0000 08B5     		push	{r3, lr}
 406              		.cfi_def_cfa_offset 8
 407              		.cfi_offset 3, -8
 408              		.cfi_offset 14, -4
  58:.\Generated_Source\PSoC4/PWM_venstre.c ****     {
 409              		.loc 1 58 0
 410 0002 064B     		ldr	r3, .L42
 411 0004 1B78     		ldrb	r3, [r3]
 412 0006 002B     		cmp	r3, #0
 413 0008 04D1     		bne	.L41
  60:.\Generated_Source\PSoC4/PWM_venstre.c ****         PWM_venstre_initVar = 1u;
 414              		.loc 1 60 0
 415 000a FFF7FEFF 		bl	PWM_venstre_Init
 416              	.LVL17:
  61:.\Generated_Source\PSoC4/PWM_venstre.c ****     }
 417              		.loc 1 61 0
 418 000e 0122     		mov	r2, #1
 419 0010 024B     		ldr	r3, .L42
 420 0012 1A70     		strb	r2, [r3]
 421              	.L41:
  63:.\Generated_Source\PSoC4/PWM_venstre.c **** 
 422              		.loc 1 63 0
 423 0014 FFF7FEFF 		bl	PWM_venstre_Enable
 424              	.LVL18:
  65:.\Generated_Source\PSoC4/PWM_venstre.c **** 
 425              		.loc 1 65 0
 426              		@ sp needed
 427 0018 08BD     		pop	{r3, pc}
 428              	.L43:
 429 001a C046     		.align	2
 430              	.L42:
 431 001c 00000000 		.word	.LANCHOR0
 432              		.cfi_endproc
 433              	.LFE0:
 434              		.size	PWM_venstre_Start, .-PWM_venstre_Start
 435              		.section	.text.PWM_venstre_ReadCompare,"ax",%progbits
 436              		.align	2
 437              		.global	PWM_venstre_ReadCompare
ARM GAS  C:\Users\PERNIL~1\AppData\Local\Temp\ccqDjgpn.s 			page 23


 438              		.code	16
 439              		.thumb_func
 440              		.type	PWM_venstre_ReadCompare, %function
 441              	PWM_venstre_ReadCompare:
 442              	.LFB14:
 794:.\Generated_Source\PSoC4/PWM_venstre.c **** 
 795:.\Generated_Source\PSoC4/PWM_venstre.c **** #endif /* (!PWM_venstre_UsingFixedFunction) */
 796:.\Generated_Source\PSoC4/PWM_venstre.c **** 
 797:.\Generated_Source\PSoC4/PWM_venstre.c **** 
 798:.\Generated_Source\PSoC4/PWM_venstre.c **** #if (PWM_venstre_UseOneCompareMode)
 799:.\Generated_Source\PSoC4/PWM_venstre.c **** 
 800:.\Generated_Source\PSoC4/PWM_venstre.c **** 
 801:.\Generated_Source\PSoC4/PWM_venstre.c ****     /*******************************************************************************
 802:.\Generated_Source\PSoC4/PWM_venstre.c ****     * Function Name: PWM_venstre_ReadCompare
 803:.\Generated_Source\PSoC4/PWM_venstre.c ****     ********************************************************************************
 804:.\Generated_Source\PSoC4/PWM_venstre.c ****     *
 805:.\Generated_Source\PSoC4/PWM_venstre.c ****     * Summary:
 806:.\Generated_Source\PSoC4/PWM_venstre.c ****     *  Reads the compare value for the compare output when the PWM Mode parameter is
 807:.\Generated_Source\PSoC4/PWM_venstre.c ****     *  set to Dither mode, Center Aligned mode, or One Output mode.
 808:.\Generated_Source\PSoC4/PWM_venstre.c ****     *
 809:.\Generated_Source\PSoC4/PWM_venstre.c ****     * Parameters:
 810:.\Generated_Source\PSoC4/PWM_venstre.c ****     *  None
 811:.\Generated_Source\PSoC4/PWM_venstre.c ****     *
 812:.\Generated_Source\PSoC4/PWM_venstre.c ****     * Return:
 813:.\Generated_Source\PSoC4/PWM_venstre.c ****     *  uint8/uint16: Current compare value
 814:.\Generated_Source\PSoC4/PWM_venstre.c ****     *
 815:.\Generated_Source\PSoC4/PWM_venstre.c ****     *******************************************************************************/
 816:.\Generated_Source\PSoC4/PWM_venstre.c ****     uint8 PWM_venstre_ReadCompare(void) 
 817:.\Generated_Source\PSoC4/PWM_venstre.c ****     {
 443              		.loc 1 817 0
 444              		.cfi_startproc
 818:.\Generated_Source\PSoC4/PWM_venstre.c ****         #if(PWM_venstre_UsingFixedFunction)
 819:.\Generated_Source\PSoC4/PWM_venstre.c ****             return ((uint8)CY_GET_REG16(PWM_venstre_COMPARE1_LSB_PTR));
 820:.\Generated_Source\PSoC4/PWM_venstre.c ****         #else
 821:.\Generated_Source\PSoC4/PWM_venstre.c ****             return (CY_GET_REG8(PWM_venstre_COMPARE1_LSB_PTR));
 445              		.loc 1 821 0
 446 0000 014B     		ldr	r3, .L45
 447 0002 1878     		ldrb	r0, [r3]
 448 0004 C0B2     		uxtb	r0, r0
 822:.\Generated_Source\PSoC4/PWM_venstre.c ****         #endif /* (PWM_venstre_UsingFixedFunction) */
 823:.\Generated_Source\PSoC4/PWM_venstre.c ****     }
 449              		.loc 1 823 0
 450              		@ sp needed
 451 0006 7047     		bx	lr
 452              	.L46:
 453              		.align	2
 454              	.L45:
 455 0008 23000F40 		.word	1074724899
 456              		.cfi_endproc
 457              	.LFE14:
 458              		.size	PWM_venstre_ReadCompare, .-PWM_venstre_ReadCompare
 459              		.section	.text.PWM_venstre_ReadPeriod,"ax",%progbits
 460              		.align	2
 461              		.global	PWM_venstre_ReadPeriod
 462              		.code	16
 463              		.thumb_func
 464              		.type	PWM_venstre_ReadPeriod, %function
ARM GAS  C:\Users\PERNIL~1\AppData\Local\Temp\ccqDjgpn.s 			page 24


 465              	PWM_venstre_ReadPeriod:
 466              	.LFB15:
 824:.\Generated_Source\PSoC4/PWM_venstre.c **** 
 825:.\Generated_Source\PSoC4/PWM_venstre.c **** #else
 826:.\Generated_Source\PSoC4/PWM_venstre.c **** 
 827:.\Generated_Source\PSoC4/PWM_venstre.c **** 
 828:.\Generated_Source\PSoC4/PWM_venstre.c ****     /*******************************************************************************
 829:.\Generated_Source\PSoC4/PWM_venstre.c ****     * Function Name: PWM_venstre_ReadCompare1
 830:.\Generated_Source\PSoC4/PWM_venstre.c ****     ********************************************************************************
 831:.\Generated_Source\PSoC4/PWM_venstre.c ****     *
 832:.\Generated_Source\PSoC4/PWM_venstre.c ****     * Summary:
 833:.\Generated_Source\PSoC4/PWM_venstre.c ****     *  Reads the compare value for the compare1 output.
 834:.\Generated_Source\PSoC4/PWM_venstre.c ****     *
 835:.\Generated_Source\PSoC4/PWM_venstre.c ****     * Parameters:
 836:.\Generated_Source\PSoC4/PWM_venstre.c ****     *  None
 837:.\Generated_Source\PSoC4/PWM_venstre.c ****     *
 838:.\Generated_Source\PSoC4/PWM_venstre.c ****     * Return:
 839:.\Generated_Source\PSoC4/PWM_venstre.c ****     *  uint8/uint16: Current compare value.
 840:.\Generated_Source\PSoC4/PWM_venstre.c ****     *
 841:.\Generated_Source\PSoC4/PWM_venstre.c ****     *******************************************************************************/
 842:.\Generated_Source\PSoC4/PWM_venstre.c ****     uint8 PWM_venstre_ReadCompare1(void) 
 843:.\Generated_Source\PSoC4/PWM_venstre.c ****     {
 844:.\Generated_Source\PSoC4/PWM_venstre.c ****         return (CY_GET_REG8(PWM_venstre_COMPARE1_LSB_PTR));
 845:.\Generated_Source\PSoC4/PWM_venstre.c ****     }
 846:.\Generated_Source\PSoC4/PWM_venstre.c **** 
 847:.\Generated_Source\PSoC4/PWM_venstre.c **** 
 848:.\Generated_Source\PSoC4/PWM_venstre.c ****     /*******************************************************************************
 849:.\Generated_Source\PSoC4/PWM_venstre.c ****     * Function Name: PWM_venstre_ReadCompare2
 850:.\Generated_Source\PSoC4/PWM_venstre.c ****     ********************************************************************************
 851:.\Generated_Source\PSoC4/PWM_venstre.c ****     *
 852:.\Generated_Source\PSoC4/PWM_venstre.c ****     * Summary:
 853:.\Generated_Source\PSoC4/PWM_venstre.c ****     *  Reads the compare value for the compare2 output.
 854:.\Generated_Source\PSoC4/PWM_venstre.c ****     *
 855:.\Generated_Source\PSoC4/PWM_venstre.c ****     * Parameters:
 856:.\Generated_Source\PSoC4/PWM_venstre.c ****     *  None
 857:.\Generated_Source\PSoC4/PWM_venstre.c ****     *
 858:.\Generated_Source\PSoC4/PWM_venstre.c ****     * Return:
 859:.\Generated_Source\PSoC4/PWM_venstre.c ****     *  uint8/uint16: Current compare value.
 860:.\Generated_Source\PSoC4/PWM_venstre.c ****     *
 861:.\Generated_Source\PSoC4/PWM_venstre.c ****     *******************************************************************************/
 862:.\Generated_Source\PSoC4/PWM_venstre.c ****     uint8 PWM_venstre_ReadCompare2(void) 
 863:.\Generated_Source\PSoC4/PWM_venstre.c ****     {
 864:.\Generated_Source\PSoC4/PWM_venstre.c ****         return (CY_GET_REG8(PWM_venstre_COMPARE2_LSB_PTR));
 865:.\Generated_Source\PSoC4/PWM_venstre.c ****     }
 866:.\Generated_Source\PSoC4/PWM_venstre.c **** 
 867:.\Generated_Source\PSoC4/PWM_venstre.c **** #endif /* (PWM_venstre_UseOneCompareMode) */
 868:.\Generated_Source\PSoC4/PWM_venstre.c **** 
 869:.\Generated_Source\PSoC4/PWM_venstre.c **** 
 870:.\Generated_Source\PSoC4/PWM_venstre.c **** /*******************************************************************************
 871:.\Generated_Source\PSoC4/PWM_venstre.c **** * Function Name: PWM_venstre_ReadPeriod
 872:.\Generated_Source\PSoC4/PWM_venstre.c **** ********************************************************************************
 873:.\Generated_Source\PSoC4/PWM_venstre.c **** *
 874:.\Generated_Source\PSoC4/PWM_venstre.c **** * Summary:
 875:.\Generated_Source\PSoC4/PWM_venstre.c **** *  Reads the period value used by the PWM hardware.
 876:.\Generated_Source\PSoC4/PWM_venstre.c **** *
 877:.\Generated_Source\PSoC4/PWM_venstre.c **** * Parameters:
 878:.\Generated_Source\PSoC4/PWM_venstre.c **** *  None
ARM GAS  C:\Users\PERNIL~1\AppData\Local\Temp\ccqDjgpn.s 			page 25


 879:.\Generated_Source\PSoC4/PWM_venstre.c **** *
 880:.\Generated_Source\PSoC4/PWM_venstre.c **** * Return:
 881:.\Generated_Source\PSoC4/PWM_venstre.c **** *  uint8/16: Period value
 882:.\Generated_Source\PSoC4/PWM_venstre.c **** *
 883:.\Generated_Source\PSoC4/PWM_venstre.c **** *******************************************************************************/
 884:.\Generated_Source\PSoC4/PWM_venstre.c **** uint8 PWM_venstre_ReadPeriod(void) 
 885:.\Generated_Source\PSoC4/PWM_venstre.c **** {
 467              		.loc 1 885 0
 468              		.cfi_startproc
 886:.\Generated_Source\PSoC4/PWM_venstre.c ****     #if(PWM_venstre_UsingFixedFunction)
 887:.\Generated_Source\PSoC4/PWM_venstre.c ****         return ((uint8)CY_GET_REG16(PWM_venstre_PERIOD_LSB_PTR));
 888:.\Generated_Source\PSoC4/PWM_venstre.c ****     #else
 889:.\Generated_Source\PSoC4/PWM_venstre.c ****         return (CY_GET_REG8(PWM_venstre_PERIOD_LSB_PTR));
 469              		.loc 1 889 0
 470 0000 014B     		ldr	r3, .L48
 471 0002 1878     		ldrb	r0, [r3]
 472 0004 C0B2     		uxtb	r0, r0
 890:.\Generated_Source\PSoC4/PWM_venstre.c ****     #endif /* (PWM_venstre_UsingFixedFunction) */
 891:.\Generated_Source\PSoC4/PWM_venstre.c **** }
 473              		.loc 1 891 0
 474              		@ sp needed
 475 0006 7047     		bx	lr
 476              	.L49:
 477              		.align	2
 478              	.L48:
 479 0008 43000F40 		.word	1074724931
 480              		.cfi_endproc
 481              	.LFE15:
 482              		.size	PWM_venstre_ReadPeriod, .-PWM_venstre_ReadPeriod
 483              		.global	PWM_venstre_initVar
 484              		.bss
 485              		.set	.LANCHOR0,. + 0
 486              		.type	PWM_venstre_initVar, %object
 487              		.size	PWM_venstre_initVar, 1
 488              	PWM_venstre_initVar:
 489 0000 00       		.space	1
 490              		.text
 491              	.Letext0:
 492              		.file 2 ".\\Generated_Source\\PSoC4\\cytypes.h"
 493              		.file 3 ".\\Generated_Source\\PSoC4\\CyLib.h"