ARM GAS  C:\Users\PERNIL~1\AppData\Local\Temp\ccJTMNZC.s 			page 1


   1              		.cpu cortex-m0
   2              		.fpu softvfp
   3              		.eabi_attribute 20, 1
   4              		.eabi_attribute 21, 1
   5              		.eabi_attribute 23, 3
   6              		.eabi_attribute 24, 1
   7              		.eabi_attribute 25, 1
   8              		.eabi_attribute 26, 1
   9              		.eabi_attribute 30, 1
  10              		.eabi_attribute 34, 0
  11              		.eabi_attribute 18, 4
  12              		.code	16
  13              		.file	"regulering.c"
  14              		.text
  15              	.Ltext0:
  16              		.cfi_sections	.debug_frame
  17              		.global	__aeabi_i2d
  18              		.global	__aeabi_dmul
  19              		.global	__aeabi_d2iz
  20              		.global	__aeabi_d2f
  21              		.section	.text.convertVtoSpeed,"ax",%progbits
  22              		.align	2
  23              		.global	convertVtoSpeed
  24              		.code	16
  25              		.thumb_func
  26              		.type	convertVtoSpeed, %function
  27              	convertVtoSpeed:
  28              	.LFB0:
  29              		.file 1 ".\\regulering.c"
   1:.\regulering.c **** #include "Regulering.h"
   2:.\regulering.c **** #include "PWM_hojre.h"
   3:.\regulering.c **** #include "PWM_venstre.h"
   4:.\regulering.c **** #include "ADC.h"
   5:.\regulering.c **** 
   6:.\regulering.c **** // Regulering: 
   7:.\regulering.c **** // Returns: Double 
   8:.\regulering.c **** // Parameter: int 
   9:.\regulering.c **** // a and b arrays is compensator coeffecients
  10:.\regulering.c **** //    double a[2] = {7.331, -15.24};
  11:.\regulering.c **** //    double b[2] = {1, -2};
  12:.\regulering.c **** //    int y;
  13:.\regulering.c **** //    int m;
  14:.\regulering.c **** //           
  15:.\regulering.c **** //    int Regulering(int x)
  16:.\regulering.c **** //    {
  17:.\regulering.c **** //        int res;
  18:.\regulering.c **** //        res = (x-b[1]*m)*a[0]+a[1]*m;
  19:.\regulering.c **** //        
  20:.\regulering.c **** //        y = res;
  21:.\regulering.c **** //        m = x;
  22:.\regulering.c **** //        
  23:.\regulering.c **** //        return y;
  24:.\regulering.c **** //    }
  25:.\regulering.c ****     
  26:.\regulering.c **** volatile int reg;
  27:.\regulering.c **** volatile int16 V_reg;
  28:.\regulering.c **** 
ARM GAS  C:\Users\PERNIL~1\AppData\Local\Temp\ccJTMNZC.s 			page 2


  29:.\regulering.c ****     float convertVtoSpeed()
  30:.\regulering.c ****     {
  30              		.loc 1 30 0
  31              		.cfi_startproc
  32 0000 08B5     		push	{r3, lr}
  33              		.cfi_def_cfa_offset 8
  34              		.cfi_offset 3, -8
  35              		.cfi_offset 14, -4
  31:.\regulering.c ****         float speed;
  32:.\regulering.c ****         V_reg = ADC_GetResult16(1);
  36              		.loc 1 32 0
  37 0002 0120     		mov	r0, #1
  38 0004 FFF7FEFF 		bl	ADC_GetResult16
  39              	.LVL0:
  40 0008 0D4B     		ldr	r3, .L2
  41 000a 1880     		strh	r0, [r3]
  33:.\regulering.c ****         reg = ADC_CountsTo_mVolts(1,V_reg)*1.5;
  42              		.loc 1 33 0
  43 000c 1988     		ldrh	r1, [r3]
  44 000e 09B2     		sxth	r1, r1
  45 0010 0120     		mov	r0, #1
  46 0012 FFF7FEFF 		bl	ADC_CountsTo_mVolts
  47              	.LVL1:
  48 0016 FFF7FEFF 		bl	__aeabi_i2d
  49              	.LVL2:
  50 001a 0022     		mov	r2, #0
  51 001c 094B     		ldr	r3, .L2+4
  52 001e FFF7FEFF 		bl	__aeabi_dmul
  53              	.LVL3:
  54 0022 FFF7FEFF 		bl	__aeabi_d2iz
  55              	.LVL4:
  56 0026 084B     		ldr	r3, .L2+8
  57 0028 1860     		str	r0, [r3]
  34:.\regulering.c ****    
  35:.\regulering.c ****         speed = 0.024*reg;
  58              		.loc 1 35 0
  59 002a 1868     		ldr	r0, [r3]
  60 002c FFF7FEFF 		bl	__aeabi_i2d
  61              	.LVL5:
  62 0030 064A     		ldr	r2, .L2+12
  63 0032 074B     		ldr	r3, .L2+16
  64 0034 FFF7FEFF 		bl	__aeabi_dmul
  65              	.LVL6:
  66 0038 FFF7FEFF 		bl	__aeabi_d2f
  67              	.LVL7:
  36:.\regulering.c ****         
  37:.\regulering.c ****         return speed;
  38:.\regulering.c ****     }
  68              		.loc 1 38 0
  69              		@ sp needed
  70 003c 08BD     		pop	{r3, pc}
  71              	.L3:
  72 003e C046     		.align	2
  73              	.L2:
  74 0040 00000000 		.word	V_reg
  75 0044 0000F83F 		.word	1073217536
  76 0048 00000000 		.word	reg
ARM GAS  C:\Users\PERNIL~1\AppData\Local\Temp\ccJTMNZC.s 			page 3


  77 004c FA7E6ABC 		.word	-1133871366
  78 0050 7493983F 		.word	1066963828
  79              		.cfi_endproc
  80              	.LFE0:
  81              		.size	convertVtoSpeed, .-convertVtoSpeed
  82              		.section	.text.start_right,"ax",%progbits
  83              		.align	2
  84              		.global	start_right
  85              		.code	16
  86              		.thumb_func
  87              		.type	start_right, %function
  88              	start_right:
  89              	.LFB2:
  39:.\regulering.c ****        
  40:.\regulering.c ****     int regulateDistance(int distance, int setDistance)
  41:.\regulering.c ****     {
  42:.\regulering.c ****         distanceFlag = 1;
  43:.\regulering.c ****         int pwmReadVal_left;
  44:.\regulering.c ****         int pwmReadVal_right;
  45:.\regulering.c ****         int pwmSetVal_left;
  46:.\regulering.c ****         int pwmSetVal_right;
  47:.\regulering.c ****         if(distance+5 > setDistance)
  48:.\regulering.c ****         {
  49:.\regulering.c ****             pwmReadVal_left = PWM_venstre_ReadCompare();
  50:.\regulering.c ****             pwmReadVal_right = PWM_hojre_ReadCompare();
  51:.\regulering.c ****             pwmSetVal_left = (pwmReadVal_left+1.525*5 == 255 ? 255 : pwmReadVal_left+1.525*5);
  52:.\regulering.c ****             pwmSetVal_right = (pwmReadVal_right+1.525*5 == 255 ? 255 : pwmReadVal_right+1.525*5);
  53:.\regulering.c ****             start_left(pwmSetVal_left);
  54:.\regulering.c ****             start_right(pwmSetVal_right);
  55:.\regulering.c ****         }  
  56:.\regulering.c ****         else if(distance-5 < setDistance)
  57:.\regulering.c ****         {
  58:.\regulering.c ****             pwmReadVal_left = PWM_venstre_ReadCompare();
  59:.\regulering.c ****             pwmReadVal_right = PWM_hojre_ReadCompare();
  60:.\regulering.c ****             pwmSetVal_left = (pwmReadVal_left-1.525*10 < 10  ? 5 : pwmReadVal_left-1.525*10);
  61:.\regulering.c ****             pwmSetVal_right = (pwmReadVal_right-1.525*10 < 10  ? 5 : pwmReadVal_right-1.525*10);
  62:.\regulering.c ****             PWM_venstre_WriteCompare(pwmSetVal_left);
  63:.\regulering.c ****             //start_left(pwmSetVal_left);
  64:.\regulering.c ****             //start_right(pwmSetVal_right);
  65:.\regulering.c ****         }
  66:.\regulering.c ****         else if(distance < distance+5 && distance > distance-5)
  67:.\regulering.c ****         {
  68:.\regulering.c ****             pwmReadVal_left = PWM_venstre_ReadCompare();
  69:.\regulering.c ****             pwmReadVal_right = PWM_hojre_ReadCompare();
  70:.\regulering.c ****             start_left(pwmReadVal_left);
  71:.\regulering.c ****             start_right(pwmReadVal_right);
  72:.\regulering.c ****         }
  73:.\regulering.c ****         else if(distance < 10)
  74:.\regulering.c ****         {
  75:.\regulering.c ****             stop();
  76:.\regulering.c ****         }         
  77:.\regulering.c ****      return 0;
  78:.\regulering.c ****     }
  79:.\regulering.c ****     
  80:.\regulering.c ****     // turns on right dc motor
  81:.\regulering.c ****     // duty cycle is regulering (0-100% 0-255)
  82:.\regulering.c ****     int start_right(unsigned int regulering)
ARM GAS  C:\Users\PERNIL~1\AppData\Local\Temp\ccJTMNZC.s 			page 4


  83:.\regulering.c ****     {
  90              		.loc 1 83 0
  91              		.cfi_startproc
  92              	.LVL8:
  93 0000 08B5     		push	{r3, lr}
  94              		.cfi_def_cfa_offset 8
  95              		.cfi_offset 3, -8
  96              		.cfi_offset 14, -4
  84:.\regulering.c ****         if(regulering > 0 && regulering < 255)
  97              		.loc 1 84 0
  98 0002 431E     		sub	r3, r0, #1
  99 0004 FD2B     		cmp	r3, #253
 100 0006 04D8     		bhi	.L6
  85:.\regulering.c ****         {   
  86:.\regulering.c ****             PWM_hojre_WriteCompare(regulering);
 101              		.loc 1 86 0
 102 0008 C0B2     		uxtb	r0, r0
 103              	.LVL9:
 104 000a FFF7FEFF 		bl	PWM_hojre_WriteCompare
 105              	.LVL10:
  87:.\regulering.c ****             return 1;
 106              		.loc 1 87 0
 107 000e 0120     		mov	r0, #1
 108 0010 01E0     		b	.L5
 109              	.LVL11:
 110              	.L6:
  88:.\regulering.c ****         }
  89:.\regulering.c ****         else    
  90:.\regulering.c ****         return -1;
 111              		.loc 1 90 0
 112 0012 0120     		mov	r0, #1
 113              	.LVL12:
 114 0014 4042     		neg	r0, r0
 115              	.LVL13:
 116              	.L5:
  91:.\regulering.c ****     }
 117              		.loc 1 91 0
 118              		@ sp needed
 119 0016 08BD     		pop	{r3, pc}
 120              		.cfi_endproc
 121              	.LFE2:
 122              		.size	start_right, .-start_right
 123              		.section	.text.start_left,"ax",%progbits
 124              		.align	2
 125              		.global	start_left
 126              		.code	16
 127              		.thumb_func
 128              		.type	start_left, %function
 129              	start_left:
 130              	.LFB3:
  92:.\regulering.c **** 
  93:.\regulering.c ****     
  94:.\regulering.c ****     // turns on left dc motor
  95:.\regulering.c ****     // duty cycle is controlled by regulering
  96:.\regulering.c ****     int start_left(unsigned int regulering)
  97:.\regulering.c ****     {
 131              		.loc 1 97 0
ARM GAS  C:\Users\PERNIL~1\AppData\Local\Temp\ccJTMNZC.s 			page 5


 132              		.cfi_startproc
 133              	.LVL14:
 134 0000 10B5     		push	{r4, lr}
 135              		.cfi_def_cfa_offset 8
 136              		.cfi_offset 4, -8
 137              		.cfi_offset 14, -4
 138 0002 041C     		mov	r4, r0
  98:.\regulering.c ****         
  99:.\regulering.c ****         if(regulering > 0 && regulering < 255)
 139              		.loc 1 99 0
 140 0004 431E     		sub	r3, r0, #1
 141 0006 FD2B     		cmp	r3, #253
 142 0008 06D8     		bhi	.L9
 100:.\regulering.c ****         {   
 101:.\regulering.c ****             PWM_venstre_Start();
 143              		.loc 1 101 0
 144 000a FFF7FEFF 		bl	PWM_venstre_Start
 145              	.LVL15:
 102:.\regulering.c ****             PWM_venstre_WriteCompare(regulering);
 146              		.loc 1 102 0
 147 000e E0B2     		uxtb	r0, r4
 148 0010 FFF7FEFF 		bl	PWM_venstre_WriteCompare
 149              	.LVL16:
 103:.\regulering.c ****             return 1;
 150              		.loc 1 103 0
 151 0014 0120     		mov	r0, #1
 152 0016 01E0     		b	.L8
 153              	.LVL17:
 154              	.L9:
 104:.\regulering.c ****         }
 105:.\regulering.c ****         else    
 106:.\regulering.c ****         return -1;
 155              		.loc 1 106 0
 156 0018 0120     		mov	r0, #1
 157              	.LVL18:
 158 001a 4042     		neg	r0, r0
 159              	.L8:
 107:.\regulering.c ****     }
 160              		.loc 1 107 0
 161              		@ sp needed
 162              	.LVL19:
 163 001c 10BD     		pop	{r4, pc}
 164              		.cfi_endproc
 165              	.LFE3:
 166              		.size	start_left, .-start_left
 167 001e C046     		.section	.text.stop,"ax",%progbits
 168              		.align	2
 169              		.global	stop
 170              		.code	16
 171              		.thumb_func
 172              		.type	stop, %function
 173              	stop:
 174              	.LFB4:
 108:.\regulering.c **** //    NOT IN USE
 109:.\regulering.c **** //    int regulatePWM(int setSpeed,int measuredSpeed)
 110:.\regulering.c **** //    {
 111:.\regulering.c **** //        float regulateSpeed;        
ARM GAS  C:\Users\PERNIL~1\AppData\Local\Temp\ccJTMNZC.s 			page 6


 112:.\regulering.c **** //        if(setSpeed > measuredSpeed)
 113:.\regulering.c **** //        {
 114:.\regulering.c **** //            setSpeed = (setSpeed > 0 ? setSpeed : 1);
 115:.\regulering.c **** //            regulateSpeed = (measuredSpeed/setSpeed)*setSpeed;
 116:.\regulering.c **** //            start_left(regulateSpeed);
 117:.\regulering.c **** //            start_right(regulateSpeed);
 118:.\regulering.c **** //        }
 119:.\regulering.c **** //        else if(setSpeed < measuredSpeed)
 120:.\regulering.c **** //        {
 121:.\regulering.c **** //            measuredSpeed = (measuredSpeed > 0 ? measuredSpeed : 1);
 122:.\regulering.c **** //            regulateSpeed = (setSpeed/measuredSpeed)*setSpeed;
 123:.\regulering.c **** //            start_left(regulateSpeed);
 124:.\regulering.c **** //            start_right(regulateSpeed);            
 125:.\regulering.c **** //        }
 126:.\regulering.c **** //        return 0;
 127:.\regulering.c **** //    }
 128:.\regulering.c ****     
 129:.\regulering.c ****     
 130:.\regulering.c ****     int stop()
 131:.\regulering.c ****     {
 175              		.loc 1 131 0
 176              		.cfi_startproc
 177 0000 08B5     		push	{r3, lr}
 178              		.cfi_def_cfa_offset 8
 179              		.cfi_offset 3, -8
 180              		.cfi_offset 14, -4
 132:.\regulering.c ****     PWM_hojre_WriteCompare(0);
 181              		.loc 1 132 0
 182 0002 0020     		mov	r0, #0
 183 0004 FFF7FEFF 		bl	PWM_hojre_WriteCompare
 184              	.LVL20:
 133:.\regulering.c ****     PWM_venstre_WriteCompare(0);
 185              		.loc 1 133 0
 186 0008 0020     		mov	r0, #0
 187 000a FFF7FEFF 		bl	PWM_venstre_WriteCompare
 188              	.LVL21:
 134:.\regulering.c ****      return 0;        
 135:.\regulering.c ****     }
 189              		.loc 1 135 0
 190 000e 0020     		mov	r0, #0
 191              		@ sp needed
 192 0010 08BD     		pop	{r3, pc}
 193              		.cfi_endproc
 194              	.LFE4:
 195              		.size	stop, .-stop
 196              		.global	__aeabi_dadd
 197              		.global	__aeabi_dcmpeq
 198              		.global	__aeabi_dsub
 199              		.global	__aeabi_dcmplt
 200 0012 C046     		.section	.text.regulateDistance,"ax",%progbits
 201              		.align	2
 202              		.global	regulateDistance
 203              		.code	16
 204              		.thumb_func
 205              		.type	regulateDistance, %function
 206              	regulateDistance:
 207              	.LFB1:
ARM GAS  C:\Users\PERNIL~1\AppData\Local\Temp\ccJTMNZC.s 			page 7


  41:.\regulering.c ****         distanceFlag = 1;
 208              		.loc 1 41 0
 209              		.cfi_startproc
 210              	.LVL22:
 211 0000 F8B5     		push	{r3, r4, r5, r6, r7, lr}
 212              		.cfi_def_cfa_offset 24
 213              		.cfi_offset 3, -24
 214              		.cfi_offset 4, -20
 215              		.cfi_offset 5, -16
 216              		.cfi_offset 6, -12
 217              		.cfi_offset 7, -8
 218              		.cfi_offset 14, -4
  42:.\regulering.c ****         int pwmReadVal_left;
 219              		.loc 1 42 0
 220 0002 0122     		mov	r2, #1
 221 0004 3A4B     		ldr	r3, .L28
 222 0006 1A60     		str	r2, [r3]
  47:.\regulering.c ****         {
 223              		.loc 1 47 0
 224 0008 431D     		add	r3, r0, #5
 225 000a 8B42     		cmp	r3, r1
 226 000c 38DD     		ble	.L12
  49:.\regulering.c ****             pwmReadVal_right = PWM_hojre_ReadCompare();
 227              		.loc 1 49 0
 228 000e FFF7FEFF 		bl	PWM_venstre_ReadCompare
 229              	.LVL23:
 230 0012 041C     		mov	r4, r0
 231              	.LVL24:
  50:.\regulering.c ****             pwmSetVal_left = (pwmReadVal_left+1.525*5 == 255 ? 255 : pwmReadVal_left+1.525*5);
 232              		.loc 1 50 0
 233 0014 FFF7FEFF 		bl	PWM_hojre_ReadCompare
 234              	.LVL25:
 235 0018 071C     		mov	r7, r0
 236              	.LVL26:
  51:.\regulering.c ****             pwmSetVal_right = (pwmReadVal_right+1.525*5 == 255 ? 255 : pwmReadVal_right+1.525*5);
 237              		.loc 1 51 0
 238 001a 201C     		mov	r0, r4
 239              	.LVL27:
 240 001c FFF7FEFF 		bl	__aeabi_i2d
 241              	.LVL28:
 242 0020 0022     		mov	r2, #0
 243 0022 344B     		ldr	r3, .L28+4
 244 0024 FFF7FEFF 		bl	__aeabi_dadd
 245              	.LVL29:
 246 0028 041C     		mov	r4, r0
 247              	.LVL30:
 248 002a 0D1C     		mov	r5, r1
 249 002c 0022     		mov	r2, #0
 250 002e 324B     		ldr	r3, .L28+8
 251 0030 FFF7FEFF 		bl	__aeabi_dcmpeq
 252              	.LVL31:
 253 0034 0028     		cmp	r0, #0
 254 0036 05D1     		bne	.L26
  51:.\regulering.c ****             pwmSetVal_right = (pwmReadVal_right+1.525*5 == 255 ? 255 : pwmReadVal_right+1.525*5);
 255              		.loc 1 51 0 is_stmt 0 discriminator 1
 256 0038 201C     		mov	r0, r4
 257 003a 291C     		mov	r1, r5
ARM GAS  C:\Users\PERNIL~1\AppData\Local\Temp\ccJTMNZC.s 			page 8


 258 003c FFF7FEFF 		bl	__aeabi_d2iz
 259              	.LVL32:
 260 0040 061C     		mov	r6, r0
 261 0042 00E0     		b	.L13
 262              	.L26:
  51:.\regulering.c ****             pwmSetVal_right = (pwmReadVal_right+1.525*5 == 255 ? 255 : pwmReadVal_right+1.525*5);
 263              		.loc 1 51 0
 264 0044 FF26     		mov	r6, #255
 265              	.L13:
 266              	.LVL33:
  52:.\regulering.c ****             start_left(pwmSetVal_left);
 267              		.loc 1 52 0 is_stmt 1 discriminator 4
 268 0046 381C     		mov	r0, r7
 269 0048 FFF7FEFF 		bl	__aeabi_i2d
 270              	.LVL34:
 271 004c 0022     		mov	r2, #0
 272 004e 294B     		ldr	r3, .L28+4
 273 0050 FFF7FEFF 		bl	__aeabi_dadd
 274              	.LVL35:
 275 0054 041C     		mov	r4, r0
 276 0056 0D1C     		mov	r5, r1
 277 0058 0022     		mov	r2, #0
 278 005a 274B     		ldr	r3, .L28+8
 279 005c FFF7FEFF 		bl	__aeabi_dcmpeq
 280              	.LVL36:
 281 0060 0028     		cmp	r0, #0
 282 0062 05D1     		bne	.L27
  52:.\regulering.c ****             start_left(pwmSetVal_left);
 283              		.loc 1 52 0 is_stmt 0 discriminator 1
 284 0064 201C     		mov	r0, r4
 285 0066 291C     		mov	r1, r5
 286 0068 FFF7FEFF 		bl	__aeabi_d2iz
 287              	.LVL37:
 288 006c 041C     		mov	r4, r0
 289 006e 00E0     		b	.L15
 290              	.L27:
  52:.\regulering.c ****             start_left(pwmSetVal_left);
 291              		.loc 1 52 0
 292 0070 FF24     		mov	r4, #255
 293              	.L15:
 294              	.LVL38:
  53:.\regulering.c ****             start_right(pwmSetVal_right);
 295              		.loc 1 53 0 is_stmt 1 discriminator 4
 296 0072 301C     		mov	r0, r6
 297 0074 FFF7FEFF 		bl	start_left
 298              	.LVL39:
  54:.\regulering.c ****         }  
 299              		.loc 1 54 0 discriminator 4
 300 0078 201C     		mov	r0, r4
 301 007a FFF7FEFF 		bl	start_right
 302              	.LVL40:
 303 007e 35E0     		b	.L17
 304              	.LVL41:
 305              	.L12:
  56:.\regulering.c ****         {
 306              		.loc 1 56 0
 307 0080 421F     		sub	r2, r0, #5
ARM GAS  C:\Users\PERNIL~1\AppData\Local\Temp\ccJTMNZC.s 			page 9


 308 0082 8A42     		cmp	r2, r1
 309 0084 1DDA     		bge	.L18
  58:.\regulering.c ****             pwmReadVal_right = PWM_hojre_ReadCompare();
 310              		.loc 1 58 0
 311 0086 FFF7FEFF 		bl	PWM_venstre_ReadCompare
 312              	.LVL42:
 313 008a 041C     		mov	r4, r0
 314              	.LVL43:
  59:.\regulering.c ****             pwmSetVal_left = (pwmReadVal_left-1.525*10 < 10  ? 5 : pwmReadVal_left-1.525*10);
 315              		.loc 1 59 0
 316 008c FFF7FEFF 		bl	PWM_hojre_ReadCompare
 317              	.LVL44:
  60:.\regulering.c ****             pwmSetVal_right = (pwmReadVal_right-1.525*10 < 10  ? 5 : pwmReadVal_right-1.525*10);
 318              		.loc 1 60 0
 319 0090 201C     		mov	r0, r4
 320 0092 FFF7FEFF 		bl	__aeabi_i2d
 321              	.LVL45:
 322 0096 0022     		mov	r2, #0
 323 0098 184B     		ldr	r3, .L28+12
 324 009a FFF7FEFF 		bl	__aeabi_dsub
 325              	.LVL46:
 326 009e 041C     		mov	r4, r0
 327              	.LVL47:
 328 00a0 0D1C     		mov	r5, r1
 329 00a2 0022     		mov	r2, #0
 330 00a4 164B     		ldr	r3, .L28+16
 331 00a6 FFF7FEFF 		bl	__aeabi_dcmplt
 332              	.LVL48:
 333 00aa 0028     		cmp	r0, #0
 334 00ac 04D1     		bne	.L23
  60:.\regulering.c ****             pwmSetVal_right = (pwmReadVal_right-1.525*10 < 10  ? 5 : pwmReadVal_right-1.525*10);
 335              		.loc 1 60 0 is_stmt 0 discriminator 2
 336 00ae 201C     		mov	r0, r4
 337 00b0 291C     		mov	r1, r5
 338 00b2 FFF7FEFF 		bl	__aeabi_d2iz
 339              	.LVL49:
 340 00b6 00E0     		b	.L19
 341              	.L23:
  60:.\regulering.c ****             pwmSetVal_right = (pwmReadVal_right-1.525*10 < 10  ? 5 : pwmReadVal_right-1.525*10);
 342              		.loc 1 60 0
 343 00b8 0520     		mov	r0, #5
 344              	.L19:
 345              	.LVL50:
  62:.\regulering.c ****             //start_left(pwmSetVal_left);
 346              		.loc 1 62 0 is_stmt 1 discriminator 4
 347 00ba C0B2     		uxtb	r0, r0
 348              	.LVL51:
 349 00bc FFF7FEFF 		bl	PWM_venstre_WriteCompare
 350              	.LVL52:
 351 00c0 14E0     		b	.L17
 352              	.LVL53:
 353              	.L18:
  66:.\regulering.c ****         {
 354              		.loc 1 66 0
 355 00c2 9842     		cmp	r0, r3
 356 00c4 0EDA     		bge	.L20
  66:.\regulering.c ****         {
ARM GAS  C:\Users\PERNIL~1\AppData\Local\Temp\ccJTMNZC.s 			page 10


 357              		.loc 1 66 0 is_stmt 0 discriminator 1
 358 00c6 9042     		cmp	r0, r2
 359 00c8 0CDD     		ble	.L20
  68:.\regulering.c ****             pwmReadVal_right = PWM_hojre_ReadCompare();
 360              		.loc 1 68 0 is_stmt 1
 361 00ca FFF7FEFF 		bl	PWM_venstre_ReadCompare
 362              	.LVL54:
 363 00ce 051C     		mov	r5, r0
 364              	.LVL55:
  69:.\regulering.c ****             start_left(pwmReadVal_left);
 365              		.loc 1 69 0
 366 00d0 FFF7FEFF 		bl	PWM_hojre_ReadCompare
 367              	.LVL56:
 368 00d4 041C     		mov	r4, r0
 369              	.LVL57:
  70:.\regulering.c ****             start_right(pwmReadVal_right);
 370              		.loc 1 70 0
 371 00d6 281C     		mov	r0, r5
 372 00d8 FFF7FEFF 		bl	start_left
 373              	.LVL58:
  71:.\regulering.c ****         }
 374              		.loc 1 71 0
 375 00dc 201C     		mov	r0, r4
 376 00de FFF7FEFF 		bl	start_right
 377              	.LVL59:
 378 00e2 03E0     		b	.L17
 379              	.LVL60:
 380              	.L20:
  73:.\regulering.c ****         {
 381              		.loc 1 73 0
 382 00e4 0928     		cmp	r0, #9
 383 00e6 01DC     		bgt	.L17
  75:.\regulering.c ****         }         
 384              		.loc 1 75 0
 385 00e8 FFF7FEFF 		bl	stop
 386              	.LVL61:
 387              	.L17:
  78:.\regulering.c ****     
 388              		.loc 1 78 0
 389 00ec 0020     		mov	r0, #0
 390              		@ sp needed
 391 00ee F8BD     		pop	{r3, r4, r5, r6, r7, pc}
 392              	.L29:
 393              		.align	2
 394              	.L28:
 395 00f0 00000000 		.word	distanceFlag
 396 00f4 00801E40 		.word	1075740672
 397 00f8 00E06F40 		.word	1081073664
 398 00fc 00802E40 		.word	1076789248
 399 0100 00002440 		.word	1076101120
 400              		.cfi_endproc
 401              	.LFE1:
 402              		.size	regulateDistance, .-regulateDistance
 403              		.section	.text.direction,"ax",%progbits
 404              		.align	2
 405              		.global	direction
 406              		.code	16
ARM GAS  C:\Users\PERNIL~1\AppData\Local\Temp\ccJTMNZC.s 			page 11


 407              		.thumb_func
 408              		.type	direction, %function
 409              	direction:
 410              	.LFB5:
 136:.\regulering.c ****     
 137:.\regulering.c ****     // Search for sound direction
 138:.\regulering.c ****     int direction(int dir)
 139:.\regulering.c ****     {
 411              		.loc 1 139 0
 412              		.cfi_startproc
 413              	.LVL62:
 414 0000 38B5     		push	{r3, r4, r5, lr}
 415              		.cfi_def_cfa_offset 16
 416              		.cfi_offset 3, -16
 417              		.cfi_offset 4, -12
 418              		.cfi_offset 5, -8
 419              		.cfi_offset 14, -4
 420 0002 051C     		mov	r5, r0
 421              	.LVL63:
 140:.\regulering.c ****         int i = 0;
 141:.\regulering.c ****         for(i = 0; i<5;i++)
 422              		.loc 1 141 0
 423 0004 0024     		mov	r4, #0
 424 0006 54E0     		b	.L31
 425              	.LVL64:
 426              	.L43:
 142:.\regulering.c ****         {
 143:.\regulering.c ****         switch(dir)
 427              		.loc 1 143 0
 428 0008 2B1C     		mov	r3, r5
 429 000a 0C3B     		sub	r3, r3, #12
 430 000c 1F2B     		cmp	r3, #31
 431 000e 4DD8     		bhi	.L32
 432 0010 9B00     		lsl	r3, r3, #2
 433 0012 2A4A     		ldr	r2, .L44
 434 0014 D358     		ldr	r3, [r2, r3]
 435 0016 9F46     		mov	pc, r3
 436              		.section	.rodata
 437              		.align	2
 438              	.L34:
 439 0000 18000000 		.word	.L33
 440 0004 AC000000 		.word	.L32
 441 0008 98000000 		.word	.L35
 442 000c AC000000 		.word	.L32
 443 0010 AC000000 		.word	.L32
 444 0014 AC000000 		.word	.L32
 445 0018 AC000000 		.word	.L32
 446 001c AC000000 		.word	.L32
 447 0020 AC000000 		.word	.L32
 448 0024 22000000 		.word	.L36
 449 0028 AC000000 		.word	.L32
 450 002c 36000000 		.word	.L37
 451 0030 AC000000 		.word	.L32
 452 0034 AC000000 		.word	.L32
 453 0038 AC000000 		.word	.L32
 454 003c AC000000 		.word	.L32
 455 0040 AC000000 		.word	.L32
ARM GAS  C:\Users\PERNIL~1\AppData\Local\Temp\ccJTMNZC.s 			page 12


 456 0044 AC000000 		.word	.L32
 457 0048 AC000000 		.word	.L32
 458 004c AC000000 		.word	.L32
 459 0050 4A000000 		.word	.L38
 460 0054 AC000000 		.word	.L32
 461 0058 5C000000 		.word	.L39
 462 005c AC000000 		.word	.L32
 463 0060 AC000000 		.word	.L32
 464 0064 AC000000 		.word	.L32
 465 0068 AC000000 		.word	.L32
 466 006c AC000000 		.word	.L32
 467 0070 AC000000 		.word	.L32
 468 0074 84000000 		.word	.L40
 469 0078 AC000000 		.word	.L32
 470 007c 70000000 		.word	.L41
 471              		.section	.text.direction
 472              	.L33:
 144:.\regulering.c ****         {
 145:.\regulering.c ****             case 12: 
 146:.\regulering.c ****             start_left(100);
 473              		.loc 1 146 0
 474 0018 6420     		mov	r0, #100
 475 001a FFF7FEFF 		bl	start_left
 476              	.LVL65:
 147:.\regulering.c ****             i++;
 477              		.loc 1 147 0
 478 001e 0134     		add	r4, r4, #1
 479              	.LVL66:
 148:.\regulering.c ****             break;
 480              		.loc 1 148 0
 481 0020 46E0     		b	.L42
 482              	.L36:
 149:.\regulering.c ****             case 21: 
 150:.\regulering.c ****             start_left(150);
 483              		.loc 1 150 0
 484 0022 9620     		mov	r0, #150
 485 0024 FFF7FEFF 		bl	start_left
 486              	.LVL67:
 151:.\regulering.c ****             CyDelay(200);
 487              		.loc 1 151 0
 488 0028 C820     		mov	r0, #200
 489 002a FFF7FEFF 		bl	CyDelay
 490              	.LVL68:
 152:.\regulering.c ****             stop();
 491              		.loc 1 152 0
 492 002e FFF7FEFF 		bl	stop
 493              	.LVL69:
 153:.\regulering.c ****             i++;
 494              		.loc 1 153 0
 495 0032 0134     		add	r4, r4, #1
 496              	.LVL70:
 154:.\regulering.c ****             break;
 497              		.loc 1 154 0
 498 0034 3CE0     		b	.L42
 499              	.L37:
 155:.\regulering.c ****             case 23: 
 156:.\regulering.c ****             start_left(200);
ARM GAS  C:\Users\PERNIL~1\AppData\Local\Temp\ccJTMNZC.s 			page 13


 500              		.loc 1 156 0
 501 0036 C820     		mov	r0, #200
 502 0038 FFF7FEFF 		bl	start_left
 503              	.LVL71:
 157:.\regulering.c ****             CyDelay(200);
 504              		.loc 1 157 0
 505 003c C820     		mov	r0, #200
 506 003e FFF7FEFF 		bl	CyDelay
 507              	.LVL72:
 158:.\regulering.c ****             stop();
 508              		.loc 1 158 0
 509 0042 FFF7FEFF 		bl	stop
 510              	.LVL73:
 159:.\regulering.c ****             i++;
 511              		.loc 1 159 0
 512 0046 0134     		add	r4, r4, #1
 513              	.LVL74:
 160:.\regulering.c ****             break;
 514              		.loc 1 160 0
 515 0048 32E0     		b	.L42
 516              	.L38:
 161:.\regulering.c ****             case 32: 
 162:.\regulering.c ****             start_left(200);
 517              		.loc 1 162 0
 518 004a C820     		mov	r0, #200
 519 004c FFF7FEFF 		bl	start_left
 520              	.LVL75:
 163:.\regulering.c ****             CyDelay(200);
 521              		.loc 1 163 0
 522 0050 C820     		mov	r0, #200
 523 0052 FFF7FEFF 		bl	CyDelay
 524              	.LVL76:
 164:.\regulering.c ****             stop();
 525              		.loc 1 164 0
 526 0056 FFF7FEFF 		bl	stop
 527              	.LVL77:
 165:.\regulering.c ****             i++;
 528              		.loc 1 165 0
 529 005a 0134     		add	r4, r4, #1
 530              	.LVL78:
 531              	.L39:
 166:.\regulering.c ****             case 34: 
 167:.\regulering.c ****             start_right(200);
 532              		.loc 1 167 0
 533 005c C820     		mov	r0, #200
 534 005e FFF7FEFF 		bl	start_right
 535              	.LVL79:
 168:.\regulering.c ****             CyDelay(200);
 536              		.loc 1 168 0
 537 0062 C820     		mov	r0, #200
 538 0064 FFF7FEFF 		bl	CyDelay
 539              	.LVL80:
 169:.\regulering.c ****             stop();
 540              		.loc 1 169 0
 541 0068 FFF7FEFF 		bl	stop
 542              	.LVL81:
 170:.\regulering.c ****             i++;
ARM GAS  C:\Users\PERNIL~1\AppData\Local\Temp\ccJTMNZC.s 			page 14


 543              		.loc 1 170 0
 544 006c 0134     		add	r4, r4, #1
 545              	.LVL82:
 171:.\regulering.c ****             break; 
 546              		.loc 1 171 0
 547 006e 1FE0     		b	.L42
 548              	.L41:
 172:.\regulering.c ****             case 43: 
 173:.\regulering.c ****             start_right(200);
 549              		.loc 1 173 0
 550 0070 C820     		mov	r0, #200
 551 0072 FFF7FEFF 		bl	start_right
 552              	.LVL83:
 174:.\regulering.c ****             CyDelay(200);
 553              		.loc 1 174 0
 554 0076 C820     		mov	r0, #200
 555 0078 FFF7FEFF 		bl	CyDelay
 556              	.LVL84:
 175:.\regulering.c ****             stop();
 557              		.loc 1 175 0
 558 007c FFF7FEFF 		bl	stop
 559              	.LVL85:
 176:.\regulering.c ****             i++;
 560              		.loc 1 176 0
 561 0080 0134     		add	r4, r4, #1
 562              	.LVL86:
 177:.\regulering.c ****             break;
 563              		.loc 1 177 0
 564 0082 15E0     		b	.L42
 565              	.L40:
 178:.\regulering.c ****             case 41: 
 179:.\regulering.c ****             start_right(150);
 566              		.loc 1 179 0
 567 0084 9620     		mov	r0, #150
 568 0086 FFF7FEFF 		bl	start_right
 569              	.LVL87:
 180:.\regulering.c ****             CyDelay(200);
 570              		.loc 1 180 0
 571 008a C820     		mov	r0, #200
 572 008c FFF7FEFF 		bl	CyDelay
 573              	.LVL88:
 181:.\regulering.c ****             stop();
 574              		.loc 1 181 0
 575 0090 FFF7FEFF 		bl	stop
 576              	.LVL89:
 182:.\regulering.c ****             i++;
 577              		.loc 1 182 0
 578 0094 0134     		add	r4, r4, #1
 579              	.LVL90:
 183:.\regulering.c ****             break;
 580              		.loc 1 183 0
 581 0096 0BE0     		b	.L42
 582              	.L35:
 184:.\regulering.c ****             case 14:
 185:.\regulering.c ****             start_right(100);
 583              		.loc 1 185 0
 584 0098 6420     		mov	r0, #100
ARM GAS  C:\Users\PERNIL~1\AppData\Local\Temp\ccJTMNZC.s 			page 15


 585 009a FFF7FEFF 		bl	start_right
 586              	.LVL91:
 186:.\regulering.c ****             CyDelay(200);
 587              		.loc 1 186 0
 588 009e C820     		mov	r0, #200
 589 00a0 FFF7FEFF 		bl	CyDelay
 590              	.LVL92:
 187:.\regulering.c ****             stop();
 591              		.loc 1 187 0
 592 00a4 FFF7FEFF 		bl	stop
 593              	.LVL93:
 188:.\regulering.c ****             i++;
 594              		.loc 1 188 0
 595 00a8 0134     		add	r4, r4, #1
 596              	.LVL94:
 189:.\regulering.c ****             break;
 597              		.loc 1 189 0
 598 00aa 01E0     		b	.L42
 599              	.L32:
 190:.\regulering.c ****             default:
 191:.\regulering.c ****             stop();
 600              		.loc 1 191 0
 601 00ac FFF7FEFF 		bl	stop
 602              	.LVL95:
 603              	.L42:
 141:.\regulering.c ****         {
 604              		.loc 1 141 0 discriminator 2
 605 00b0 0134     		add	r4, r4, #1
 606              	.LVL96:
 607              	.L31:
 141:.\regulering.c ****         {
 608              		.loc 1 141 0 is_stmt 0 discriminator 1
 609 00b2 042C     		cmp	r4, #4
 610 00b4 A8DD     		ble	.L43
 192:.\regulering.c ****         }
 193:.\regulering.c ****         }
 194:.\regulering.c ****     return 0;
 195:.\regulering.c ****     }
 611              		.loc 1 195 0 is_stmt 1
 612 00b6 0020     		mov	r0, #0
 613              		@ sp needed
 614              	.LVL97:
 615              	.LVL98:
 616 00b8 38BD     		pop	{r3, r4, r5, pc}
 617              	.L45:
 618 00ba C046     		.align	2
 619              	.L44:
 620 00bc 00000000 		.word	.L34
 621              		.cfi_endproc
 622              	.LFE5:
 623              		.size	direction, .-direction
 624              		.comm	V_reg,2,2
 625              		.comm	reg,4,4
 626              		.text
 627              	.Letext0:
 628              		.file 2 "Generated_Source\\PSoC4/cytypes.h"
 629              		.file 3 ".\\Regulering.h"
ARM GAS  C:\Users\PERNIL~1\AppData\Local\Temp\ccJTMNZC.s 			page 16


 630              		.file 4 "Generated_Source\\PSoC4/ADC.h"
 631              		.file 5 "Generated_Source\\PSoC4/PWM_hojre.h"
 632              		.file 6 "Generated_Source\\PSoC4/PWM_venstre.h"
 633              		.file 7 "Generated_Source\\PSoC4/CyLib.h"