ARM GAS  C:\Users\PERNIL~1\AppData\Local\Temp\ccivKCED.s 			page 1


   1              		.cpu cortex-m0
   2              		.fpu softvfp
   3              		.eabi_attribute 20, 1
   4              		.eabi_attribute 21, 1
   5              		.eabi_attribute 23, 3
   6              		.eabi_attribute 24, 1
   7              		.eabi_attribute 25, 1
   8              		.eabi_attribute 26, 1
   9              		.eabi_attribute 30, 1
  10              		.eabi_attribute 34, 0
  11              		.eabi_attribute 18, 4
  12              		.code	16
  13              		.file	"test.c"
  14              		.text
  15              	.Ltext0:
  16              		.cfi_sections	.debug_frame
  17              		.section	.text.main,"ax",%progbits
  18              		.align	2
  19              		.global	main
  20              		.code	16
  21              		.thumb_func
  22              		.type	main, %function
  23              	main:
  24              	.LFB34:
  25              		.file 1 ".\\test.c"
   1:.\test.c      **** #include <project.h>
   2:.\test.c      **** #include "I2Cslave.h"
   3:.\test.c      **** #include <stdbool.h>
   4:.\test.c      **** #include <stdio.h>
   5:.\test.c      **** #include "distance.h"
   6:.\test.c      **** #include "regulering.h"
   7:.\test.c      **** 
   8:.\test.c      **** #define size 3
   9:.\test.c      **** #define MODE_FOLG_OBJEKT 0xE1
  10:.\test.c      **** #define MODE_FOLG_LYD 0xE2
  11:.\test.c      **** #define OBJEKT_LIGEUD 0xFB
  12:.\test.c      **** #define OBJEKT_VENSTRE 0xFA
  13:.\test.c      **** #define OBJEKT_HOJRE 0xC2
  14:.\test.c      **** #define OBJEKT_IKKE_FUNDET 0xC3
  15:.\test.c      **** #define START 0xC4
  16:.\test.c      **** 
  17:.\test.c      **** uint8 buffer = 0;
  18:.\test.c      **** int i=0;
  19:.\test.c      **** bool readObjData = false;
  20:.\test.c      **** int mode=0;
  21:.\test.c      **** bool start=false;
  22:.\test.c      **** int16 result;
  23:.\test.c      **** uint8 dataRdy;
  24:.\test.c      **** volatile int16 V;
  25:.\test.c      **** volatile float32 Volt;
  26:.\test.c      **** const int setDistance = 50;
  27:.\test.c      **** int distanceFlag = 1;
  28:.\test.c      **** 
  29:.\test.c      **** char test1[] = "Hello from folg lyd \n\r"; 
  30:.\test.c      **** char test2[] = "Hello from folg objekt \n\r"; 
  31:.\test.c      **** char test3[] = "Hello from objekt ligeud \n\r"; 
  32:.\test.c      **** char test4[] = "Hello from objekt venstre \n\r"; 
ARM GAS  C:\Users\PERNIL~1\AppData\Local\Temp\ccivKCED.s 			page 2


  33:.\test.c      **** char test5[] = "Hello from objekt hojre \n\r"; 
  34:.\test.c      **** char test6[] = "Hello from objekt ikke fundet \n\r"; 
  35:.\test.c      **** char test7[] = "Hello from start \n\r"; 
  36:.\test.c      **** char test8[] = "Hello from readObject \n\r"; 
  37:.\test.c      **** char val[20]; 
  38:.\test.c      **** char * p1; 
  39:.\test.c      **** 
  40:.\test.c      **** 
  41:.\test.c      **** int main()
  42:.\test.c      **** {
  26              		.loc 1 42 0
  27              		.cfi_startproc
  28 0000 30B5     		push	{r4, r5, lr}
  29              		.cfi_def_cfa_offset 12
  30              		.cfi_offset 4, -12
  31              		.cfi_offset 5, -8
  32              		.cfi_offset 14, -4
  33 0002 83B0     		sub	sp, sp, #12
  34              		.cfi_def_cfa_offset 24
  43:.\test.c      ****     CyGlobalIntEnable; /* Enable global interrupts. */
  35              		.loc 1 43 0
  36              	@ 43 ".\test.c" 1
  37 0004 62B6     		CPSIE   i
  38              	@ 0 "" 2
  44:.\test.c      ****     I2C_1_Start();
  39              		.loc 1 44 0
  40              		.code	16
  41 0006 FFF7FEFF 		bl	I2C_1_Start
  42              	.LVL0:
  45:.\test.c      ****     
  46:.\test.c      ****        // ADC_IRQ_Enable();
  47:.\test.c      ****     ADC_Start();
  43              		.loc 1 47 0
  44 000a FFF7FEFF 		bl	ADC_Start
  45              	.LVL1:
  48:.\test.c      ****     ADC_StartConvert();
  46              		.loc 1 48 0
  47 000e FFF7FEFF 		bl	ADC_StartConvert
  48              	.LVL2:
  49:.\test.c      ****     UART_print_Start(); 
  49              		.loc 1 49 0
  50 0012 FFF7FEFF 		bl	UART_print_Start
  51              	.LVL3:
  50:.\test.c      **** 
  51:.\test.c      **** //    PWM_venstre_WriteCompare(127);
  52:.\test.c      **** //    PWM_hojre_WriteCompare(127);
  53:.\test.c      **** 
  54:.\test.c      ****  // Init the slave buffers
  55:.\test.c      ****     initReceiveData();
  52              		.loc 1 55 0
  53 0016 FFF7FEFF 		bl	initReceiveData
  54              	.LVL4:
  55              	.L3:
  56              	.LBB2:
  56:.\test.c      ****     //DebugLEDBlue_Write(0u); 
  57:.\test.c      ****     
  58:.\test.c      ****     
ARM GAS  C:\Users\PERNIL~1\AppData\Local\Temp\ccivKCED.s 			page 3


  59:.\test.c      ****     while(1)
  60:.\test.c      ****     {
  61:.\test.c      ****         buffer = 0;
  57              		.loc 1 61 0
  58 001a 364C     		ldr	r4, .L14
  59 001c 0023     		mov	r3, #0
  60 001e 2370     		strb	r3, [r4]
  62:.\test.c      ****         receiveData(&buffer);
  61              		.loc 1 62 0
  62 0020 201C     		mov	r0, r4
  63 0022 FFF7FEFF 		bl	receiveData
  64              	.LVL5:
  63:.\test.c      ****         
  64:.\test.c      ****         volatile int distance;       
  65:.\test.c      ****         distance = distanceToObject();
  65              		.loc 1 65 0
  66 0026 FFF7FEFF 		bl	distanceToObject
  67              	.LVL6:
  68 002a 0190     		str	r0, [sp, #4]
  66:.\test.c      ****         
  67:.\test.c      ****         switch(buffer)
  69              		.loc 1 67 0
  70 002c 2378     		ldrb	r3, [r4]
  71 002e 3E33     		add	r3, r3, #62
  72 0030 DAB2     		uxtb	r2, r3
  73 0032 392A     		cmp	r2, #57
  74 0034 F1D8     		bhi	.L3
  75 0036 9300     		lsl	r3, r2, #2
  76 0038 2F4A     		ldr	r2, .L14+4
  77 003a D358     		ldr	r3, [r2, r3]
  78 003c 9F46     		mov	pc, r3
  79              		.section	.rodata
  80              		.align	2
  81              	.L5:
  82 0000 80000000 		.word	.L4
  83 0004 92000000 		.word	.L6
  84 0008 A0000000 		.word	.L7
  85 000c 1A000000 		.word	.L3
  86 0010 1A000000 		.word	.L3
  87 0014 1A000000 		.word	.L3
  88 0018 1A000000 		.word	.L3
  89 001c 1A000000 		.word	.L3
  90 0020 1A000000 		.word	.L3
  91 0024 1A000000 		.word	.L3
  92 0028 1A000000 		.word	.L3
  93 002c 1A000000 		.word	.L3
  94 0030 1A000000 		.word	.L3
  95 0034 1A000000 		.word	.L3
  96 0038 1A000000 		.word	.L3
  97 003c 1A000000 		.word	.L3
  98 0040 1A000000 		.word	.L3
  99 0044 1A000000 		.word	.L3
 100 0048 1A000000 		.word	.L3
 101 004c 1A000000 		.word	.L3
 102 0050 1A000000 		.word	.L3
 103 0054 1A000000 		.word	.L3
 104 0058 1A000000 		.word	.L3
ARM GAS  C:\Users\PERNIL~1\AppData\Local\Temp\ccivKCED.s 			page 4


 105 005c 1A000000 		.word	.L3
 106 0060 1A000000 		.word	.L3
 107 0064 1A000000 		.word	.L3
 108 0068 1A000000 		.word	.L3
 109 006c 1A000000 		.word	.L3
 110 0070 1A000000 		.word	.L3
 111 0074 1A000000 		.word	.L3
 112 0078 1A000000 		.word	.L3
 113 007c 3E000000 		.word	.L8
 114 0080 4C000000 		.word	.L9
 115 0084 1A000000 		.word	.L3
 116 0088 1A000000 		.word	.L3
 117 008c 1A000000 		.word	.L3
 118 0090 1A000000 		.word	.L3
 119 0094 1A000000 		.word	.L3
 120 0098 1A000000 		.word	.L3
 121 009c 1A000000 		.word	.L3
 122 00a0 1A000000 		.word	.L3
 123 00a4 1A000000 		.word	.L3
 124 00a8 1A000000 		.word	.L3
 125 00ac 1A000000 		.word	.L3
 126 00b0 1A000000 		.word	.L3
 127 00b4 1A000000 		.word	.L3
 128 00b8 1A000000 		.word	.L3
 129 00bc 1A000000 		.word	.L3
 130 00c0 1A000000 		.word	.L3
 131 00c4 1A000000 		.word	.L3
 132 00c8 1A000000 		.word	.L3
 133 00cc 1A000000 		.word	.L3
 134 00d0 1A000000 		.word	.L3
 135 00d4 1A000000 		.word	.L3
 136 00d8 1A000000 		.word	.L3
 137 00dc 1A000000 		.word	.L3
 138 00e0 6E000000 		.word	.L10
 139 00e4 5C000000 		.word	.L11
 140              		.section	.text.main
 141              	.L8:
  68:.\test.c      ****         {
  69:.\test.c      ****             case MODE_FOLG_OBJEKT:
  70:.\test.c      ****                 //Mode folg objekt
  71:.\test.c      ****                 
  72:.\test.c      ****                 mode=MODE_FOLG_OBJEKT;
 142              		.loc 1 72 0
 143 003e E122     		mov	r2, #225
 144 0040 2C4B     		ldr	r3, .L14
 145 0042 5A60     		str	r2, [r3, #4]
  73:.\test.c      ****                 
  74:.\test.c      ****                 UART_print_UartPutString(test2);
 146              		.loc 1 74 0
 147 0044 2D48     		ldr	r0, .L14+8
 148 0046 FFF7FEFF 		bl	UART_print_UartPutString
 149              	.LVL7:
  75:.\test.c      ****                 
  76:.\test.c      ****                
  77:.\test.c      ****                 break;
 150              		.loc 1 77 0
 151 004a E6E7     		b	.L3
ARM GAS  C:\Users\PERNIL~1\AppData\Local\Temp\ccivKCED.s 			page 5


 152              	.L9:
  78:.\test.c      ****             case MODE_FOLG_LYD:
  79:.\test.c      ****                 //Mode folg lyd
  80:.\test.c      ****                 mode = MODE_FOLG_LYD; 
 153              		.loc 1 80 0
 154 004c E222     		mov	r2, #226
 155 004e 294B     		ldr	r3, .L14
 156 0050 5A60     		str	r2, [r3, #4]
  81:.\test.c      ****                 
  82:.\test.c      ****                 UART_print_UartPutString(test1);
 157              		.loc 1 82 0
 158 0052 2A48     		ldr	r0, .L14+8
 159 0054 1C30     		add	r0, r0, #28
 160 0056 FFF7FEFF 		bl	UART_print_UartPutString
 161              	.LVL8:
  83:.\test.c      ****                 
  84:.\test.c      ****                 break;
 162              		.loc 1 84 0
 163 005a DEE7     		b	.L3
 164              	.L11:
  85:.\test.c      ****        // if (readObjData)
  86:.\test.c      ****         //{
  87:.\test.c      ****             PWM_hojre_Start();
  88:.\test.c      ****             PWM_venstre_Start();
  89:.\test.c      ****             case OBJEKT_LIGEUD :
  90:.\test.c      ****                 // Objektretning ligeud
  91:.\test.c      ****                 //UART_print_UartPutString("Object lige ud");
  92:.\test.c      ****                 
  93:.\test.c      ****                 UART_print_UartPutString(test3);
 165              		.loc 1 93 0
 166 005c 2748     		ldr	r0, .L14+8
 167 005e 3430     		add	r0, r0, #52
 168 0060 FFF7FEFF 		bl	UART_print_UartPutString
 169              	.LVL9:
  94:.\test.c      ****                 
  95:.\test.c      ****                 regulateDistance(distance,setDistance);
 170              		.loc 1 95 0
 171 0064 0198     		ldr	r0, [sp, #4]
 172 0066 3221     		mov	r1, #50
 173 0068 FFF7FEFF 		bl	regulateDistance
 174              	.LVL10:
  96:.\test.c      ****                 
  97:.\test.c      ****                 break;
 175              		.loc 1 97 0
 176 006c D5E7     		b	.L3
 177              	.L10:
  98:.\test.c      ****             case OBJEKT_VENSTRE:
  99:.\test.c      ****                 //Objetkretning venstre
 100:.\test.c      ****                 UART_print_UartPutString(test4);
 178              		.loc 1 100 0
 179 006e 2348     		ldr	r0, .L14+8
 180 0070 5030     		add	r0, r0, #80
 181 0072 FFF7FEFF 		bl	UART_print_UartPutString
 182              	.LVL11:
 101:.\test.c      ****                 
 102:.\test.c      ****                 regulateDistance(distance,setDistance);
 183              		.loc 1 102 0
ARM GAS  C:\Users\PERNIL~1\AppData\Local\Temp\ccivKCED.s 			page 6


 184 0076 0198     		ldr	r0, [sp, #4]
 185 0078 3221     		mov	r1, #50
 186 007a FFF7FEFF 		bl	regulateDistance
 187              	.LVL12:
 103:.\test.c      ****                                 
 104:.\test.c      ****                 break;
 188              		.loc 1 104 0
 189 007e CCE7     		b	.L3
 190              	.L4:
 105:.\test.c      ****             case OBJEKT_HOJRE:
 106:.\test.c      ****                 //Objektretning hojre
 107:.\test.c      ****                 UART_print_UartPutString(test5);
 191              		.loc 1 107 0
 192 0080 1E48     		ldr	r0, .L14+8
 193 0082 7030     		add	r0, r0, #112
 194 0084 FFF7FEFF 		bl	UART_print_UartPutString
 195              	.LVL13:
 108:.\test.c      ****                 
 109:.\test.c      ****                 regulateDistance(distance,setDistance);
 196              		.loc 1 109 0
 197 0088 0198     		ldr	r0, [sp, #4]
 198 008a 3221     		mov	r1, #50
 199 008c FFF7FEFF 		bl	regulateDistance
 200              	.LVL14:
 110:.\test.c      ****                 
 111:.\test.c      ****                 break;
 201              		.loc 1 111 0
 202 0090 C3E7     		b	.L3
 203              	.L6:
 112:.\test.c      ****             case OBJEKT_IKKE_FUNDET:
 113:.\test.c      ****                 //Objekt ikke fundet
 114:.\test.c      ****                 UART_print_UartPutString(test6);
 204              		.loc 1 114 0
 205 0092 1B48     		ldr	r0, .L14+12
 206 0094 0C30     		add	r0, r0, #12
 207 0096 FFF7FEFF 		bl	UART_print_UartPutString
 208              	.LVL15:
 115:.\test.c      ****                 
 116:.\test.c      ****                 stop(); 
 209              		.loc 1 116 0
 210 009a FFF7FEFF 		bl	stop
 211              	.LVL16:
 117:.\test.c      ****                 break;
 212              		.loc 1 117 0
 213 009e BCE7     		b	.L3
 214              	.L7:
 118:.\test.c      ****        // }
 119:.\test.c      ****             case START:
 120:.\test.c      ****                 UART_print_UartPutString(test7);
 215              		.loc 1 120 0
 216 00a0 1748     		ldr	r0, .L14+12
 217 00a2 3030     		add	r0, r0, #48
 218 00a4 FFF7FEFF 		bl	UART_print_UartPutString
 219              	.LVL17:
 121:.\test.c      ****                 
 122:.\test.c      ****                 start=!start;
 220              		.loc 1 122 0
ARM GAS  C:\Users\PERNIL~1\AppData\Local\Temp\ccivKCED.s 			page 7


 221 00a8 124C     		ldr	r4, .L14
 222 00aa 227A     		ldrb	r2, [r4, #8]
 223 00ac 0123     		mov	r3, #1
 224 00ae 5A40     		eor	r2, r3
 225 00b0 2272     		strb	r2, [r4, #8]
 123:.\test.c      ****                 p1=val; 
 226              		.loc 1 123 0
 227 00b2 144D     		ldr	r5, .L14+16
 228 00b4 1448     		ldr	r0, .L14+20
 229 00b6 2860     		str	r0, [r5]
 124:.\test.c      ****                 sprintf(val, "%d",start);
 230              		.loc 1 124 0
 231 00b8 1449     		ldr	r1, .L14+24
 232 00ba FFF7FEFF 		bl	sprintf
 233              	.LVL18:
 125:.\test.c      ****                 UART_print_UartPutString(p1); 
 234              		.loc 1 125 0
 235 00be 2868     		ldr	r0, [r5]
 236 00c0 FFF7FEFF 		bl	UART_print_UartPutString
 237              	.LVL19:
 126:.\test.c      ****                 
 127:.\test.c      ****                 if (start)
 238              		.loc 1 127 0
 239 00c4 237A     		ldrb	r3, [r4, #8]
 240 00c6 002B     		cmp	r3, #0
 241 00c8 0DD0     		beq	.L13
 128:.\test.c      ****                 {
 129:.\test.c      ****                     if (mode == MODE_FOLG_LYD)
 242              		.loc 1 129 0
 243 00ca 0A4B     		ldr	r3, .L14
 244 00cc 5B68     		ldr	r3, [r3, #4]
 245 00ce E22B     		cmp	r3, #226
 246 00d0 A3D0     		beq	.L3
 130:.\test.c      ****                     {
 131:.\test.c      ****                         // follow sound
 132:.\test.c      ****                     }
 133:.\test.c      ****                     else if (mode == MODE_FOLG_OBJEKT)
 247              		.loc 1 133 0
 248 00d2 E12B     		cmp	r3, #225
 249 00d4 A1D1     		bne	.L3
 134:.\test.c      ****                     {
 135:.\test.c      ****                         // read data
 136:.\test.c      ****                         readObjData = true;
 250              		.loc 1 136 0
 251 00d6 0122     		mov	r2, #1
 252 00d8 064B     		ldr	r3, .L14
 253 00da 5A72     		strb	r2, [r3, #9]
 137:.\test.c      ****                         UART_print_UartPutString(test8);
 254              		.loc 1 137 0
 255 00dc 0848     		ldr	r0, .L14+12
 256 00de 4430     		add	r0, r0, #68
 257 00e0 FFF7FEFF 		bl	UART_print_UartPutString
 258              	.LVL20:
 259 00e4 99E7     		b	.L3
 260              	.L13:
 138:.\test.c      ****                     }
 139:.\test.c      ****                 }
ARM GAS  C:\Users\PERNIL~1\AppData\Local\Temp\ccivKCED.s 			page 8


 140:.\test.c      ****                 else 
 141:.\test.c      ****                 {
 142:.\test.c      ****                     // stop car
 143:.\test.c      ****                     stop(); 
 261              		.loc 1 143 0
 262 00e6 FFF7FEFF 		bl	stop
 263              	.LVL21:
 144:.\test.c      ****                     UART_print_UartPutString("Hello from else stop car");
 264              		.loc 1 144 0
 265 00ea 0948     		ldr	r0, .L14+28
 266 00ec FFF7FEFF 		bl	UART_print_UartPutString
 267              	.LVL22:
 268 00f0 93E7     		b	.L3
 269              	.L15:
 270 00f2 C046     		.align	2
 271              	.L14:
 272 00f4 00000000 		.word	.LANCHOR0
 273 00f8 00000000 		.word	.L5
 274 00fc 00000000 		.word	.LANCHOR1
 275 0100 80000000 		.word	.LANCHOR2
 276 0104 00000000 		.word	p1
 277 0108 00000000 		.word	val
 278 010c 00000000 		.word	.LC6
 279 0110 04000000 		.word	.LC8
 280              	.LBE2:
 281              		.cfi_endproc
 282              	.LFE34:
 283              		.size	main, .-main
 284              		.comm	p1,4,4
 285              		.comm	val,20,4
 286              		.global	test8
 287              		.global	test7
 288              		.global	test6
 289              		.global	test5
 290              		.global	test4
 291              		.global	test3
 292              		.global	test2
 293              		.global	test1
 294              		.global	distanceFlag
 295              		.global	setDistance
 296              		.comm	Volt,4,4
 297              		.comm	V,2,2
 298              		.comm	dataRdy,1,1
 299              		.comm	result,2,2
 300              		.global	start
 301              		.global	mode
 302              		.global	readObjData
 303              		.global	i
 304              		.global	buffer
 305              		.comm	wrbuf,4,4
 306              		.section	.rodata
 307              		.align	2
 308              		.type	setDistance, %object
 309              		.size	setDistance, 4
 310              	setDistance:
 311 00e8 32000000 		.word	50
 312              		.data
ARM GAS  C:\Users\PERNIL~1\AppData\Local\Temp\ccivKCED.s 			page 9


 313              		.align	2
 314              		.set	.LANCHOR1,. + 0
 315              		.set	.LANCHOR2,. + 128
 316              		.type	test2, %object
 317              		.size	test2, 26
 318              	test2:
 319 0000 48656C6C 		.ascii	"Hello from folg objekt \012\015\000"
 319      6F206672 
 319      6F6D2066 
 319      6F6C6720 
 319      6F626A65 
 320 001a 0000     		.space	2
 321              		.type	test1, %object
 322              		.size	test1, 23
 323              	test1:
 324 001c 48656C6C 		.ascii	"Hello from folg lyd \012\015\000"
 324      6F206672 
 324      6F6D2066 
 324      6F6C6720 
 324      6C796420 
 325 0033 00       		.space	1
 326              		.type	test3, %object
 327              		.size	test3, 28
 328              	test3:
 329 0034 48656C6C 		.ascii	"Hello from objekt ligeud \012\015\000"
 329      6F206672 
 329      6F6D206F 
 329      626A656B 
 329      74206C69 
 330              		.type	test4, %object
 331              		.size	test4, 29
 332              	test4:
 333 0050 48656C6C 		.ascii	"Hello from objekt venstre \012\015\000"
 333      6F206672 
 333      6F6D206F 
 333      626A656B 
 333      74207665 
 334 006d 000000   		.space	3
 335              		.type	test5, %object
 336              		.size	test5, 27
 337              	test5:
 338 0070 48656C6C 		.ascii	"Hello from objekt hojre \012\015\000"
 338      6F206672 
 338      6F6D206F 
 338      626A656B 
 338      7420686F 
 339 008b 00       		.space	1
 340              		.type	test6, %object
 341              		.size	test6, 33
 342              	test6:
 343 008c 48656C6C 		.ascii	"Hello from objekt ikke fundet \012\015\000"
 343      6F206672 
 343      6F6D206F 
 343      626A656B 
 343      7420696B 
 344 00ad 000000   		.space	3
 345              		.type	test7, %object
ARM GAS  C:\Users\PERNIL~1\AppData\Local\Temp\ccivKCED.s 			page 10


 346              		.size	test7, 20
 347              	test7:
 348 00b0 48656C6C 		.ascii	"Hello from start \012\015\000"
 348      6F206672 
 348      6F6D2073 
 348      74617274 
 348      200A0D00 
 349              		.type	test8, %object
 350              		.size	test8, 25
 351              	test8:
 352 00c4 48656C6C 		.ascii	"Hello from readObject \012\015\000"
 352      6F206672 
 352      6F6D2072 
 352      6561644F 
 352      626A6563 
 353 00dd 000000   		.space	3
 354              		.type	distanceFlag, %object
 355              		.size	distanceFlag, 4
 356              	distanceFlag:
 357 00e0 01000000 		.word	1
 358              		.section	.rodata.str1.4,"aMS",%progbits,1
 359              		.align	2
 360              	.LC6:
 361 0000 256400   		.ascii	"%d\000"
 362 0003 00       		.space	1
 363              	.LC8:
 364 0004 48656C6C 		.ascii	"Hello from else stop car\000"
 364      6F206672 
 364      6F6D2065 
 364      6C736520 
 364      73746F70 
 365 001d 000000   		.bss
 366              		.align	2
 367              		.set	.LANCHOR0,. + 0
 368              		.type	buffer, %object
 369              		.size	buffer, 1
 370              	buffer:
 371 0000 00       		.space	1
 372 0001 000000   		.space	3
 373              		.type	mode, %object
 374              		.size	mode, 4
 375              	mode:
 376 0004 00000000 		.space	4
 377              		.type	start, %object
 378              		.size	start, 1
 379              	start:
 380 0008 00       		.space	1
 381              		.type	readObjData, %object
 382              		.size	readObjData, 1
 383              	readObjData:
 384 0009 00       		.space	1
 385 000a 0000     		.space	2
 386              		.type	i, %object
 387              		.size	i, 4
 388              	i:
 389 000c 00000000 		.space	4
 390              		.text
ARM GAS  C:\Users\PERNIL~1\AppData\Local\Temp\ccivKCED.s 			page 11


 391              	.Letext0:
 392              		.file 2 "Generated_Source\\PSoC4/cytypes.h"
 393              		.file 3 ".\\I2Cslave.h"
 394              		.file 4 ".\\distance.h"
 395              		.file 5 "Generated_Source\\PSoC4/UART_print_SPI_UART.h"
 396              		.file 6 ".\\regulering.h"
 397              		.file 7 "c:\\program files (x86)\\cypress\\psoc creator\\3.3\\psoc creator\\import\\gnu\\arm\\4.9.
 398              		.file 8 "Generated_Source\\PSoC4/I2C_1.h"
 399              		.file 9 "Generated_Source\\PSoC4/ADC.h"
 400              		.file 10 "Generated_Source\\PSoC4/UART_print.h"